(dp0
I0
(lp1
ccopy_reg
_reconstructor
p2
(cHoles
Cycle
p3
c__builtin__
object
p4
Ntp5
Rp6
(dp7
S'start'
p8
S'0.0'
p9
sS'dim'
p10
I0
sS'end'
p11
S'1.0'
p12
sS'composition'
p13
(lp14
(lp15
S'19'
p16
aa(lp17
S'6'
p18
aasbag2
(g3
g4
Ntp19
Rp20
(dp21
S'start'
p22
S'0.0'
p23
sS'dim'
p24
I0
sS'end'
p25
S'2.0'
p26
sS'composition'
p27
(lp28
(lp29
S'16'
p30
aa(lp31
S'1'
p32
aasbag2
(g3
g4
Ntp33
Rp34
(dp35
S'start'
p36
S'0.0'
p37
sS'dim'
p38
I0
sS'end'
p39
S'3.0'
p40
sS'composition'
p41
(lp42
(lp43
S'9'
p44
aa(lp45
S'22'
p46
aasbag2
(g3
g4
Ntp47
Rp48
(dp49
S'start'
p50
S'0.0'
p51
sS'dim'
p52
I0
sS'end'
p53
S'4.0'
p54
sS'composition'
p55
(lp56
(lp57
S'25'
p58
aa(lp59
S'24'
p60
aasbag2
(g3
g4
Ntp61
Rp62
(dp63
S'start'
p64
S'0.0'
p65
sS'dim'
p66
I0
sS'end'
p67
S'5.0'
p68
sS'composition'
p69
(lp70
(lp71
S'24'
p72
aa(lp73
S'13'
p74
aasbag2
(g3
g4
Ntp75
Rp76
(dp77
S'start'
p78
S'0.0'
p79
sS'dim'
p80
I0
sS'end'
p81
S'6.0'
p82
sS'composition'
p83
(lp84
(lp85
S'8'
p86
aa(lp87
S'18'
p88
aasbag2
(g3
g4
Ntp89
Rp90
(dp91
S'start'
p92
S'0.0'
p93
sS'dim'
p94
I0
sS'end'
p95
S'7.0'
p96
sS'composition'
p97
(lp98
(lp99
S'23'
p100
aa(lp101
S'9'
p102
aasbag2
(g3
g4
Ntp103
Rp104
(dp105
S'start'
p106
S'0.0'
p107
sS'dim'
p108
I0
sS'end'
p109
S'8.0'
p110
sS'composition'
p111
(lp112
(lp113
S'8'
p114
aa(lp115
S'13'
p116
aasbag2
(g3
g4
Ntp117
Rp118
(dp119
S'start'
p120
S'0.0'
p121
sS'dim'
p122
I0
sS'end'
p123
S'10.0'
p124
sS'composition'
p125
(lp126
(lp127
S'12'
p128
aa(lp129
S'27'
p130
aasbag2
(g3
g4
Ntp131
Rp132
(dp133
S'start'
p134
S'0.0'
p135
sS'dim'
p136
I0
sS'end'
p137
S'11.0'
p138
sS'composition'
p139
(lp140
(lp141
S'8'
p142
aa(lp143
S'12'
p144
aasbag2
(g3
g4
Ntp145
Rp146
(dp147
S'start'
p148
S'0.0'
p149
sS'dim'
p150
I0
sS'end'
p151
S'14.0'
p152
sS'composition'
p153
(lp154
(lp155
S'4'
p156
aa(lp157
S'1'
p158
aasbag2
(g3
g4
Ntp159
Rp160
(dp161
S'start'
p162
S'0.0'
p163
sS'dim'
p164
I0
sS'end'
p165
S'17.0'
p166
sS'composition'
p167
(lp168
(lp169
S'8'
p170
aa(lp171
S'6'
p172
aasbag2
(g3
g4
Ntp173
Rp174
(dp175
S'start'
p176
S'0.0'
p177
sS'dim'
p178
I0
sS'end'
p179
S'20.0'
p180
sS'composition'
p181
(lp182
(lp183
S'6'
p184
aa(lp185
S'1'
p186
aasbag2
(g3
g4
Ntp187
Rp188
(dp189
S'start'
p190
S'0.0'
p191
sS'dim'
p192
I0
sS'end'
p193
S'23.0'
p194
sS'composition'
p195
(lp196
(lp197
S'7'
p198
aa(lp199
S'10'
p200
aasbag2
(g3
g4
Ntp201
Rp202
(dp203
S'start'
p204
S'0.0'
p205
sS'dim'
p206
I0
sS'end'
p207
S'24.0'
p208
sS'composition'
p209
(lp210
(lp211
S'23'
p212
aa(lp213
S'26'
p214
aasbag2
(g3
g4
Ntp215
Rp216
(dp217
S'start'
p218
S'0.0'
p219
sS'dim'
p220
I0
sS'end'
p221
S'27.0'
p222
sS'composition'
p223
(lp224
(lp225
S'7'
p226
aa(lp227
S'6'
p228
aasbag2
(g3
g4
Ntp229
Rp230
(dp231
S'start'
p232
S'0.0'
p233
sS'dim'
p234
I0
sS'end'
p235
S'32.0'
p236
sS'composition'
p237
(lp238
(lp239
S'1'
p240
aa(lp241
S'0'
p242
aasbag2
(g3
g4
Ntp243
Rp244
(dp245
S'start'
p246
S'0.0'
p247
sS'dim'
p248
I0
sS'end'
p249
S'37.0'
p250
sS'composition'
p251
(lp252
(lp253
S'6'
p254
aa(lp255
S'9'
p256
aasbag2
(g3
g4
Ntp257
Rp258
(dp259
S'start'
p260
S'0.0'
p261
sS'dim'
p262
I0
sS'end'
p263
S'44.0'
p264
sS'composition'
p265
(lp266
(lp267
S'20'
p268
aa(lp269
S'9'
p270
aasbag2
(g3
g4
Ntp271
Rp272
(dp273
S'start'
p274
S'0.0'
p275
sS'dim'
p276
I0
sS'end'
p277
S'46.0'
p278
sS'composition'
p279
(lp280
(lp281
S'3'
p282
aa(lp283
S'17'
p284
aasbag2
(g3
g4
Ntp285
Rp286
(dp287
S'start'
p288
S'0.0'
p289
sS'dim'
p290
I0
sS'end'
p291
S'47.0'
p292
sS'composition'
p293
(lp294
(lp295
S'5'
p296
aa(lp297
S'1'
p298
aasbag2
(g3
g4
Ntp299
Rp300
(dp301
S'start'
p302
S'0.0'
p303
sS'dim'
p304
I0
sS'end'
p305
S'48.0'
p306
sS'composition'
p307
(lp308
(lp309
S'2'
p310
aa(lp311
S'1'
p312
aasbag2
(g3
g4
Ntp313
Rp314
(dp315
S'start'
p316
S'0.0'
p317
sS'dim'
p318
I0
sS'end'
p319
S'53.0'
p320
sS'composition'
p321
(lp322
(lp323
S'25'
p324
aa(lp325
S'28'
p326
aasbag2
(g3
g4
Ntp327
Rp328
(dp329
S'start'
p330
S'0.0'
p331
sS'dim'
p332
I0
sS'end'
p333
S'68.0'
p334
sS'composition'
p335
(lp336
(lp337
S'7'
p338
aa(lp339
S'11'
p340
aasbag2
(g3
g4
Ntp341
Rp342
(dp343
S'start'
p344
S'0.0'
p345
sS'dim'
p346
I0
sS'end'
p347
S'71.0'
p348
sS'composition'
p349
(lp350
(lp351
S'3'
p352
aa(lp353
S'1'
p354
aasbag2
(g3
g4
Ntp355
Rp356
(dp357
S'start'
p358
S'0.0'
p359
sS'dim'
p360
I0
sS'end'
p361
S'134.0'
p362
sS'composition'
p363
(lp364
(lp365
S'8'
p366
aa(lp367
S'14'
p368
aasbag2
(g3
g4
Ntp369
Rp370
(dp371
S'start'
p372
S'0.0'
p373
sS'dim'
p374
I0
sS'end'
p375
S'154.0'
p376
sS'composition'
p377
(lp378
(lp379
S'4'
p380
aa(lp381
S'15'
p382
aasbag2
(g3
g4
Ntp383
Rp384
(dp385
S'start'
p386
S'0.0'
p387
sS'dim'
p388
I0
sS'end'
p389
S'334'
p390
sS'composition'
p391
(lp392
(lp393
S'0'
p394
aasbasI1
(lp395
g2
(g3
g4
Ntp396
Rp397
(dp398
S'start'
p399
S'16.0'
p400
sS'dim'
p401
I1
sS'end'
p402
S'21.0'
p403
sS'composition'
p404
(lp405
(lp406
S'13'
p407
aS'25'
p408
aa(lp409
S'12'
p410
aS'13'
p411
aa(lp412
S'12'
p413
aS'27'
p414
aa(lp415
S'25'
p416
aS'27'
p417
aasbag2
(g3
g4
Ntp418
Rp419
(dp420
S'start'
p421
S'28.0'
p422
sS'dim'
p423
I1
sS'end'
p424
S'33.0'
p425
sS'composition'
p426
(lp427
(lp428
S'1'
p429
aS'6'
p430
aa(lp431
S'1'
p432
aS'16'
p433
aa(lp434
S'16'
p435
aS'25'
p436
aa(lp437
S'6'
p438
aS'19'
p439
aa(lp440
S'19'
p441
aS'25'
p442
aasbag2
(g3
g4
Ntp443
Rp444
(dp445
S'start'
p446
S'26.0'
p447
sS'dim'
p448
I1
sS'end'
p449
S'38.0'
p450
sS'composition'
p451
(lp452
(lp453
S'1'
p454
aS'6'
p455
aa(lp456
S'6'
p457
aS'8'
p458
aa(lp459
S'1'
p460
aS'13'
p461
aa(lp462
S'8'
p463
aS'13'
p464
aasbag2
(g3
g4
Ntp465
Rp466
(dp467
S'start'
p468
S'25.0'
p469
sS'dim'
p470
I1
sS'end'
p471
S'39.0'
p472
sS'composition'
p473
(lp474
(lp475
S'13'
p476
aS'25'
p477
aa(lp478
S'1'
p479
aS'6'
p480
aa(lp481
S'1'
p482
aS'16'
p483
aa(lp484
S'16'
p485
aS'25'
p486
aa(lp487
S'6'
p488
aS'8'
p489
aa(lp490
S'8'
p491
aS'13'
p492
aasbag2
(g3
g4
Ntp493
Rp494
(dp495
S'start'
p496
S'45.0'
p497
sS'dim'
p498
I1
sS'end'
p499
S'62.0'
p500
sS'composition'
p501
(lp502
(lp503
S'19'
p504
aS'22'
p505
aa(lp506
S'6'
p507
aS'19'
p508
aa(lp509
S'6'
p510
aS'9'
p511
aa(lp512
S'9'
p513
aS'22'
p514
aasbag2
(g3
g4
Ntp515
Rp516
(dp517
S'start'
p518
S'40.0'
p519
sS'dim'
p520
I1
sS'end'
p521
S'76.0'
p522
sS'composition'
p523
(lp524
(lp525
S'8'
p526
aS'10'
p527
aa(lp528
S'12'
p529
aS'13'
p530
aa(lp531
S'10'
p532
aS'12'
p533
aa(lp534
S'8'
p535
aS'13'
p536
aasbag2
(g3
g4
Ntp537
Rp538
(dp539
S'start'
p540
S'72.0'
p541
sS'dim'
p542
I1
sS'end'
p543
S'91.0'
p544
sS'composition'
p545
(lp546
(lp547
S'8'
p548
aS'10'
p549
aa(lp550
S'7'
p551
aS'24'
p552
aa(lp553
S'8'
p554
aS'24'
p555
aa(lp556
S'7'
p557
aS'10'
p558
aasbag2
(g3
g4
Ntp559
Rp560
(dp561
S'start'
p562
S'89.0'
p563
sS'dim'
p564
I1
sS'end'
p565
S'112.0'
p566
sS'composition'
p567
(lp568
(lp569
S'7'
p570
aS'11'
p571
aa(lp572
S'11'
p573
aS'26'
p574
aa(lp575
S'7'
p576
aS'22'
p577
aa(lp578
S'22'
p579
aS'26'
p580
aasbag2
(g3
g4
Ntp581
Rp582
(dp583
S'start'
p584
S'78.0'
p585
sS'dim'
p586
I1
sS'end'
p587
S'114.0'
p588
sS'composition'
p589
(lp590
(lp591
S'8'
p592
aS'10'
p593
aa(lp594
S'19'
p595
aS'22'
p596
aa(lp597
S'8'
p598
aS'19'
p599
aa(lp600
S'7'
p601
aS'11'
p602
aa(lp603
S'7'
p604
aS'10'
p605
aa(lp606
S'11'
p607
aS'26'
p608
aa(lp609
S'22'
p610
aS'26'
p611
aasbag2
(g3
g4
Ntp612
Rp613
(dp614
S'start'
p615
S'83.0'
p616
sS'dim'
p617
I1
sS'end'
p618
S'121.0'
p619
sS'composition'
p620
(lp621
(lp622
S'17'
p623
aS'25'
p624
aa(lp625
S'3'
p626
aS'17'
p627
aa(lp628
S'1'
p629
aS'25'
p630
aa(lp631
S'3'
p632
aS'13'
p633
aa(lp634
S'1'
p635
aS'13'
p636
aasbag2
(g3
g4
Ntp637
Rp638
(dp639
S'start'
p640
S'98.0'
p641
sS'dim'
p642
I1
sS'end'
p643
S'138.0'
p644
sS'composition'
p645
(lp646
(lp647
S'1'
p648
aS'6'
p649
aa(lp650
S'5'
p651
aS'9'
p652
aa(lp653
S'6'
p654
aS'9'
p655
aa(lp656
S'0'
p657
aS'5'
p658
aa(lp659
S'0'
p660
aS'1'
p661
aasbag2
(g3
g4
Ntp662
Rp663
(dp664
S'start'
p665
S'123.0'
p666
sS'dim'
p667
I1
sS'end'
p668
S'146.0'
p669
sS'composition'
p670
(lp671
(lp672
S'9'
p673
aS'22'
p674
aa(lp675
S'3'
p676
aS'11'
p677
aa(lp678
S'0'
p679
aS'3'
p680
aa(lp681
S'5'
p682
aS'9'
p683
aa(lp684
S'11'
p685
aS'22'
p686
aa(lp687
S'0'
p688
aS'5'
p689
aasbag2
(g3
g4
Ntp690
Rp691
(dp692
S'start'
p693
S'126.0'
p694
sS'dim'
p695
I1
sS'end'
p696
S'149.0'
p697
sS'composition'
p698
(lp699
(lp700
S'17'
p701
aS'20'
p702
aa(lp703
S'3'
p704
aS'17'
p705
aa(lp706
S'0'
p707
aS'3'
p708
aa(lp709
S'5'
p710
aS'9'
p711
aa(lp712
S'0'
p713
aS'5'
p714
aa(lp715
S'9'
p716
aS'20'
p717
aasbag2
(g3
g4
Ntp718
Rp719
(dp720
S'start'
p721
S'139.0'
p722
sS'dim'
p723
I1
sS'end'
p724
S'163.0'
p725
sS'composition'
p726
(lp727
(lp728
S'12'
p729
aS'22'
p730
aa(lp731
S'12'
p732
aS'27'
p733
aa(lp734
S'26'
p735
aS'27'
p736
aa(lp737
S'22'
p738
aS'26'
p739
aasbag2
(g3
g4
Ntp740
Rp741
(dp742
S'start'
p743
S'189.0'
p744
sS'dim'
p745
I1
sS'end'
p746
S'203.0'
p747
sS'composition'
p748
(lp749
(lp750
S'1'
p751
aS'4'
p752
aa(lp753
S'4'
p754
aS'15'
p755
aa(lp756
S'5'
p757
aS'15'
p758
aa(lp759
S'0'
p760
aS'5'
p761
aa(lp762
S'0'
p763
aS'1'
p764
aasbas.