(dp0
I0
(lp1
ccopy_reg
_reconstructor
p2
(cHoles
Cycle
p3
c__builtin__
object
p4
Ntp5
Rp6
(dp7
S'start'
p8
S'0.0'
p9
sS'dim'
p10
I0
sS'end'
p11
S'1.0'
p12
sS'composition'
p13
(lp14
(lp15
S'3'
p16
aa(lp17
S'0'
p18
aasbag2
(g3
g4
Ntp19
Rp20
(dp21
S'start'
p22
S'0.0'
p23
sS'dim'
p24
I0
sS'end'
p25
S'2.0'
p26
sS'composition'
p27
(lp28
(lp29
S'30'
p30
aa(lp31
S'9'
p32
aasbag2
(g3
g4
Ntp33
Rp34
(dp35
S'start'
p36
S'0.0'
p37
sS'dim'
p38
I0
sS'end'
p39
S'3.0'
p40
sS'composition'
p41
(lp42
(lp43
S'24'
p44
aa(lp45
S'9'
p46
aasbag2
(g3
g4
Ntp47
Rp48
(dp49
S'start'
p50
S'0.0'
p51
sS'dim'
p52
I0
sS'end'
p53
S'4.0'
p54
sS'composition'
p55
(lp56
(lp57
S'8'
p58
aa(lp59
S'9'
p60
aasbag2
(g3
g4
Ntp61
Rp62
(dp63
S'start'
p64
S'0.0'
p65
sS'dim'
p66
I0
sS'end'
p67
S'6.0'
p68
sS'composition'
p69
(lp70
(lp71
S'19'
p72
aa(lp73
S'2'
p74
aasbag2
(g3
g4
Ntp75
Rp76
(dp77
S'start'
p78
S'0.0'
p79
sS'dim'
p80
I0
sS'end'
p81
S'7.0'
p82
sS'composition'
p83
(lp84
(lp85
S'0'
p86
aa(lp87
S'1'
p88
aasbag2
(g3
g4
Ntp89
Rp90
(dp91
S'start'
p92
S'0.0'
p93
sS'dim'
p94
I0
sS'end'
p95
S'8.0'
p96
sS'composition'
p97
(lp98
(lp99
S'29'
p100
aa(lp101
S'11'
p102
aasbag2
(g3
g4
Ntp103
Rp104
(dp105
S'start'
p106
S'0.0'
p107
sS'dim'
p108
I0
sS'end'
p109
S'9.0'
p110
sS'composition'
p111
(lp112
(lp113
S'4'
p114
aa(lp115
S'2'
p116
aasbag2
(g3
g4
Ntp117
Rp118
(dp119
S'start'
p120
S'0.0'
p121
sS'dim'
p122
I0
sS'end'
p123
S'10.0'
p124
sS'composition'
p125
(lp126
(lp127
S'9'
p128
aa(lp129
S'11'
p130
aasbag2
(g3
g4
Ntp131
Rp132
(dp133
S'start'
p134
S'0.0'
p135
sS'dim'
p136
I0
sS'end'
p137
S'12.0'
p138
sS'composition'
p139
(lp140
(lp141
S'16'
p142
aa(lp143
S'3'
p144
aasbag2
(g3
g4
Ntp145
Rp146
(dp147
S'start'
p148
S'0.0'
p149
sS'dim'
p150
I0
sS'end'
p151
S'13.0'
p152
sS'composition'
p153
(lp154
(lp155
S'8'
p156
aa(lp157
S'28'
p158
aasbag2
(g3
g4
Ntp159
Rp160
(dp161
S'start'
p162
S'0.0'
p163
sS'dim'
p164
I0
sS'end'
p165
S'14.0'
p166
sS'composition'
p167
(lp168
(lp169
S'33'
p170
aa(lp171
S'14'
p172
aasbag2
(g3
g4
Ntp173
Rp174
(dp175
S'start'
p176
S'0.0'
p177
sS'dim'
p178
I0
sS'end'
p179
S'16.0'
p180
sS'composition'
p181
(lp182
(lp183
S'8'
p184
aa(lp185
S'5'
p186
aasbag2
(g3
g4
Ntp187
Rp188
(dp189
S'start'
p190
S'0.0'
p191
sS'dim'
p192
I0
sS'end'
p193
S'22.0'
p194
sS'composition'
p195
(lp196
(lp197
S'12'
p198
aa(lp199
S'9'
p200
aasbag2
(g3
g4
Ntp201
Rp202
(dp203
S'start'
p204
S'0.0'
p205
sS'dim'
p206
I0
sS'end'
p207
S'23.0'
p208
sS'composition'
p209
(lp210
(lp211
S'12'
p212
aa(lp213
S'15'
p214
aasbag2
(g3
g4
Ntp215
Rp216
(dp217
S'start'
p218
S'0.0'
p219
sS'dim'
p220
I0
sS'end'
p221
S'24.0'
p222
sS'composition'
p223
(lp224
(lp225
S'30'
p226
aa(lp227
S'34'
p228
aasbag2
(g3
g4
Ntp229
Rp230
(dp231
S'start'
p232
S'0.0'
p233
sS'dim'
p234
I0
sS'end'
p235
S'28.0'
p236
sS'composition'
p237
(lp238
(lp239
S'32'
p240
aa(lp241
S'14'
p242
aasbag2
(g3
g4
Ntp243
Rp244
(dp245
S'start'
p246
S'0.0'
p247
sS'dim'
p248
I0
sS'end'
p249
S'29.0'
p250
sS'composition'
p251
(lp252
(lp253
S'12'
p254
aa(lp255
S'14'
p256
aasbag2
(g3
g4
Ntp257
Rp258
(dp259
S'start'
p260
S'0.0'
p261
sS'dim'
p262
I0
sS'end'
p263
S'30.0'
p264
sS'composition'
p265
(lp266
(lp267
S'7'
p268
aa(lp269
S'26'
p270
aasbag2
(g3
g4
Ntp271
Rp272
(dp273
S'start'
p274
S'0.0'
p275
sS'dim'
p276
I0
sS'end'
p277
S'35.0'
p278
sS'composition'
p279
(lp280
(lp281
S'6'
p282
aa(lp283
S'3'
p284
aasbag2
(g3
g4
Ntp285
Rp286
(dp287
S'start'
p288
S'0.0'
p289
sS'dim'
p290
I0
sS'end'
p291
S'36.0'
p292
sS'composition'
p293
(lp294
(lp295
S'20'
p296
aa(lp297
S'2'
p298
aasbag2
(g3
g4
Ntp299
Rp300
(dp301
S'start'
p302
S'0.0'
p303
sS'dim'
p304
I0
sS'end'
p305
S'38.0'
p306
sS'composition'
p307
(lp308
(lp309
S'10'
p310
aa(lp311
S'9'
p312
aasbag2
(g3
g4
Ntp313
Rp314
(dp315
S'start'
p316
S'0.0'
p317
sS'dim'
p318
I0
sS'end'
p319
S'39.0'
p320
sS'composition'
p321
(lp322
(lp323
S'25'
p324
aa(lp325
S'3'
p326
aasbag2
(g3
g4
Ntp327
Rp328
(dp329
S'start'
p330
S'0.0'
p331
sS'dim'
p332
I0
sS'end'
p333
S'41.0'
p334
sS'composition'
p335
(lp336
(lp337
S'2'
p338
aa(lp339
S'5'
p340
aasbag2
(g3
g4
Ntp341
Rp342
(dp343
S'start'
p344
S'0.0'
p345
sS'dim'
p346
I0
sS'end'
p347
S'43.0'
p348
sS'composition'
p349
(lp350
(lp351
S'2'
p352
aa(lp353
S'0'
p354
aasbag2
(g3
g4
Ntp355
Rp356
(dp357
S'start'
p358
S'0.0'
p359
sS'dim'
p360
I0
sS'end'
p361
S'49.0'
p362
sS'composition'
p363
(lp364
(lp365
S'7'
p366
aa(lp367
S'0'
p368
aasbag2
(g3
g4
Ntp369
Rp370
(dp371
S'start'
p372
S'0.0'
p373
sS'dim'
p374
I0
sS'end'
p375
S'51.0'
p376
sS'composition'
p377
(lp378
(lp379
S'17'
p380
aa(lp381
S'1'
p382
aasbag2
(g3
g4
Ntp383
Rp384
(dp385
S'start'
p386
S'0.0'
p387
sS'dim'
p388
I0
sS'end'
p389
S'52.0'
p390
sS'composition'
p391
(lp392
(lp393
S'2'
p394
aa(lp395
S'18'
p396
aasbag2
(g3
g4
Ntp397
Rp398
(dp399
S'start'
p400
S'0.0'
p401
sS'dim'
p402
I0
sS'end'
p403
S'53.0'
p404
sS'composition'
p405
(lp406
(lp407
S'3'
p408
aa(lp409
S'22'
p410
aasbag2
(g3
g4
Ntp411
Rp412
(dp413
S'start'
p414
S'0.0'
p415
sS'dim'
p416
I0
sS'end'
p417
S'54.0'
p418
sS'composition'
p419
(lp420
(lp421
S'31'
p422
aa(lp423
S'13'
p424
aasbag2
(g3
g4
Ntp425
Rp426
(dp427
S'start'
p428
S'0.0'
p429
sS'dim'
p430
I0
sS'end'
p431
S'80.0'
p432
sS'composition'
p433
(lp434
(lp435
S'7'
p436
aa(lp437
S'23'
p438
aasbag2
(g3
g4
Ntp439
Rp440
(dp441
S'start'
p442
S'0.0'
p443
sS'dim'
p444
I0
sS'end'
p445
S'83.0'
p446
sS'composition'
p447
(lp448
(lp449
S'12'
p450
aa(lp451
S'13'
p452
aasbag2
(g3
g4
Ntp453
Rp454
(dp455
S'start'
p456
S'0.0'
p457
sS'dim'
p458
I0
sS'end'
p459
S'123.0'
p460
sS'composition'
p461
(lp462
(lp463
S'21'
p464
aa(lp465
S'4'
p466
aasbag2
(g3
g4
Ntp467
Rp468
(dp469
S'start'
p470
S'0.0'
p471
sS'dim'
p472
I0
sS'end'
p473
S'569'
p474
sS'composition'
p475
(lp476
(lp477
S'0'
p478
aasbasI1
(lp479
g2
(g3
g4
Ntp480
Rp481
(dp482
S'start'
p483
S'50.0'
p484
sS'dim'
p485
I1
sS'end'
p486
S'55.0'
p487
sS'composition'
p488
(lp489
(lp490
S'27'
p491
aS'30'
p492
aa(lp493
S'5'
p494
aS'27'
p495
aa(lp496
S'19'
p497
aS'30'
p498
aa(lp499
S'5'
p500
aS'19'
p501
aasbag2
(g3
g4
Ntp502
Rp503
(dp504
S'start'
p505
S'60.0'
p506
sS'dim'
p507
I1
sS'end'
p508
S'67.0'
p509
sS'composition'
p510
(lp511
(lp512
S'15'
p513
aS'26'
p514
aa(lp515
S'0'
p516
aS'3'
p517
aa(lp518
S'0'
p519
aS'26'
p520
aa(lp521
S'3'
p522
aS'15'
p523
aasbag2
(g3
g4
Ntp524
Rp525
(dp526
S'start'
p527
S'65.0'
p528
sS'dim'
p529
I1
sS'end'
p530
S'69.0'
p531
sS'composition'
p532
(lp533
(lp534
S'2'
p535
aS'30'
p536
aa(lp537
S'2'
p538
aS'15'
p539
aa(lp540
S'30'
p541
aS'34'
p542
aa(lp543
S'15'
p544
aS'34'
p545
aasbag2
(g3
g4
Ntp546
Rp547
(dp548
S'start'
p549
S'27.0'
p550
sS'dim'
p551
I1
sS'end'
p552
S'77.0'
p553
sS'composition'
p554
(lp555
(lp556
S'12'
p557
aS'30'
p558
aa(lp559
S'30'
p560
aS'34'
p561
aa(lp562
S'15'
p563
aS'34'
p564
aa(lp565
S'12'
p566
aS'15'
p567
aasbag2
(g3
g4
Ntp568
Rp569
(dp570
S'start'
p571
S'84.0'
p572
sS'dim'
p573
I1
sS'end'
p574
S'92.0'
p575
sS'composition'
p576
(lp577
(lp578
S'9'
p579
aS'30'
p580
aa(lp581
S'12'
p582
aS'30'
p583
aa(lp584
S'1'
p585
aS'12'
p586
aa(lp587
S'9'
p588
aS'26'
p589
aa(lp590
S'1'
p591
aS'26'
p592
aasbag2
(g3
g4
Ntp593
Rp594
(dp595
S'start'
p596
S'117.0'
p597
sS'dim'
p598
I1
sS'end'
p599
S'120.0'
p600
sS'composition'
p601
(lp602
(lp603
S'16'
p604
aS'19'
p605
aa(lp606
S'12'
p607
aS'19'
p608
aa(lp609
S'1'
p610
aS'16'
p611
aa(lp612
S'1'
p613
aS'12'
p614
aasbag2
(g3
g4
Ntp615
Rp616
(dp617
S'start'
p618
S'115.0'
p619
sS'dim'
p620
I1
sS'end'
p621
S'132.0'
p622
sS'composition'
p623
(lp624
(lp625
S'15'
p626
aS'31'
p627
aa(lp628
S'10'
p629
aS'31'
p630
aa(lp631
S'10'
p632
aS'12'
p633
aa(lp634
S'12'
p635
aS'15'
p636
aasbag2
(g3
g4
Ntp637
Rp638
(dp639
S'start'
p640
S'113.0'
p641
sS'dim'
p642
I1
sS'end'
p643
S'138.0'
p644
sS'composition'
p645
(lp646
(lp647
S'10'
p648
aS'20'
p649
aa(lp650
S'2'
p651
aS'12'
p652
aa(lp653
S'2'
p654
aS'20'
p655
aa(lp656
S'10'
p657
aS'12'
p658
aasbag2
(g3
g4
Ntp659
Rp660
(dp661
S'start'
p662
S'136.0'
p663
sS'dim'
p664
I1
sS'end'
p665
S'161.0'
p666
sS'composition'
p667
(lp668
(lp669
S'26'
p670
aS'31'
p671
aa(lp672
S'9'
p673
aS'26'
p674
aa(lp675
S'11'
p676
aS'13'
p677
aa(lp678
S'9'
p679
aS'11'
p680
aa(lp681
S'13'
p682
aS'31'
p683
aasbag2
(g3
g4
Ntp684
Rp685
(dp686
S'start'
p687
S'94.0'
p688
sS'dim'
p689
I1
sS'end'
p690
S'206.0'
p691
sS'composition'
p692
(lp693
(lp694
S'2'
p695
aS'28'
p696
aa(lp697
S'5'
p698
aS'22'
p699
aa(lp700
S'5'
p701
aS'11'
p702
aa(lp703
S'2'
p704
aS'15'
p705
aa(lp706
S'3'
p707
aS'22'
p708
aa(lp709
S'3'
p710
aS'15'
p711
aa(lp712
S'11'
p713
aS'28'
p714
aasbag2
(g3
g4
Ntp715
Rp716
(dp717
S'start'
p718
S'220.0'
p719
sS'dim'
p720
I1
sS'end'
p721
S'280.0'
p722
sS'composition'
p723
(lp724
(lp725
S'7'
p726
aS'32'
p727
aa(lp728
S'7'
p729
aS'26'
p730
aa(lp731
S'1'
p732
aS'17'
p733
aa(lp734
S'17'
p735
aS'32'
p736
aa(lp737
S'0'
p738
aS'26'
p739
aa(lp740
S'0'
p741
aS'1'
p742
aasbas.