(dp0
I0
(lp1
ccopy_reg
_reconstructor
p2
(cHoles
Cycle
p3
c__builtin__
object
p4
Ntp5
Rp6
(dp7
S'start'
p8
S'0.0'
p9
sS'dim'
p10
I0
sS'end'
p11
S'1.0'
p12
sS'composition'
p13
(lp14
(lp15
S'24'
p16
aa(lp17
S'21'
p18
aasbag2
(g3
g4
Ntp19
Rp20
(dp21
S'start'
p22
S'0.0'
p23
sS'dim'
p24
I0
sS'end'
p25
S'2.0'
p26
sS'composition'
p27
(lp28
(lp29
S'3'
p30
aa(lp31
S'1'
p32
aasbag2
(g3
g4
Ntp33
Rp34
(dp35
S'start'
p36
S'0.0'
p37
sS'dim'
p38
I0
sS'end'
p39
S'3.0'
p40
sS'composition'
p41
(lp42
(lp43
S'15'
p44
aa(lp45
S'1'
p46
aasbag2
(g3
g4
Ntp47
Rp48
(dp49
S'start'
p50
S'0.0'
p51
sS'dim'
p52
I0
sS'end'
p53
S'4.0'
p54
sS'composition'
p55
(lp56
(lp57
S'21'
p58
aa(lp59
S'15'
p60
aasbag2
(g3
g4
Ntp61
Rp62
(dp63
S'start'
p64
S'0.0'
p65
sS'dim'
p66
I0
sS'end'
p67
S'5.0'
p68
sS'composition'
p69
(lp70
(lp71
S'8'
p72
aa(lp73
S'9'
p74
aasbag2
(g3
g4
Ntp75
Rp76
(dp77
S'start'
p78
S'0.0'
p79
sS'dim'
p80
I0
sS'end'
p81
S'6.0'
p82
sS'composition'
p83
(lp84
(lp85
S'16'
p86
aa(lp87
S'15'
p88
aasbag2
(g3
g4
Ntp89
Rp90
(dp91
S'start'
p92
S'0.0'
p93
sS'dim'
p94
I0
sS'end'
p95
S'9.0'
p96
sS'composition'
p97
(lp98
(lp99
S'26'
p100
aa(lp101
S'11'
p102
aasbag2
(g3
g4
Ntp103
Rp104
(dp105
S'start'
p106
S'0.0'
p107
sS'dim'
p108
I0
sS'end'
p109
S'11.0'
p110
sS'composition'
p111
(lp112
(lp113
S'14'
p114
aa(lp115
S'13'
p116
aasbag2
(g3
g4
Ntp117
Rp118
(dp119
S'start'
p120
S'0.0'
p121
sS'dim'
p122
I0
sS'end'
p123
S'12.0'
p124
sS'composition'
p125
(lp126
(lp127
S'25'
p128
aa(lp129
S'10'
p130
aasbag2
(g3
g4
Ntp131
Rp132
(dp133
S'start'
p134
S'0.0'
p135
sS'dim'
p136
I0
sS'end'
p137
S'13.0'
p138
sS'composition'
p139
(lp140
(lp141
S'29'
p142
aa(lp143
S'24'
p144
aasbag2
(g3
g4
Ntp145
Rp146
(dp147
S'start'
p148
S'0.0'
p149
sS'dim'
p150
I0
sS'end'
p151
S'18.0'
p152
sS'composition'
p153
(lp154
(lp155
S'8'
p156
aa(lp157
S'3'
p158
aasbag2
(g3
g4
Ntp159
Rp160
(dp161
S'start'
p162
S'0.0'
p163
sS'dim'
p164
I0
sS'end'
p165
S'19.0'
p166
sS'composition'
p167
(lp168
(lp169
S'2'
p170
aa(lp171
S'1'
p172
aasbag2
(g3
g4
Ntp173
Rp174
(dp175
S'start'
p176
S'0.0'
p177
sS'dim'
p178
I0
sS'end'
p179
S'22.0'
p180
sS'composition'
p181
(lp182
(lp183
S'12'
p184
aa(lp185
S'27'
p186
aasbag2
(g3
g4
Ntp187
Rp188
(dp189
S'start'
p190
S'0.0'
p191
sS'dim'
p192
I0
sS'end'
p193
S'26.0'
p194
sS'composition'
p195
(lp196
(lp197
S'2'
p198
aa(lp199
S'5'
p200
aasbag2
(g3
g4
Ntp201
Rp202
(dp203
S'start'
p204
S'0.0'
p205
sS'dim'
p206
I0
sS'end'
p207
S'28.0'
p208
sS'composition'
p209
(lp210
(lp211
S'28'
p212
aa(lp213
S'22'
p214
aasbag2
(g3
g4
Ntp215
Rp216
(dp217
S'start'
p218
S'0.0'
p219
sS'dim'
p220
I0
sS'end'
p221
S'29.0'
p222
sS'composition'
p223
(lp224
(lp225
S'18'
p226
aa(lp227
S'22'
p228
aasbag2
(g3
g4
Ntp229
Rp230
(dp231
S'start'
p232
S'0.0'
p233
sS'dim'
p234
I0
sS'end'
p235
S'31.0'
p236
sS'composition'
p237
(lp238
(lp239
S'18'
p240
aa(lp241
S'11'
p242
aasbag2
(g3
g4
Ntp243
Rp244
(dp245
S'start'
p246
S'0.0'
p247
sS'dim'
p248
I0
sS'end'
p249
S'33.0'
p250
sS'composition'
p251
(lp252
(lp253
S'13'
p254
aa(lp255
S'0'
p256
aasbag2
(g3
g4
Ntp257
Rp258
(dp259
S'start'
p260
S'0.0'
p261
sS'dim'
p262
I0
sS'end'
p263
S'34.0'
p264
sS'composition'
p265
(lp266
(lp267
S'1'
p268
aa(lp269
S'11'
p270
aasbag2
(g3
g4
Ntp271
Rp272
(dp273
S'start'
p274
S'0.0'
p275
sS'dim'
p276
I0
sS'end'
p277
S'37.0'
p278
sS'composition'
p279
(lp280
(lp281
S'6'
p282
aa(lp283
S'1'
p284
aasbag2
(g3
g4
Ntp285
Rp286
(dp287
S'start'
p288
S'0.0'
p289
sS'dim'
p290
I0
sS'end'
p291
S'38.0'
p292
sS'composition'
p293
(lp294
(lp295
S'0'
p296
aa(lp297
S'1'
p298
aasbag2
(g3
g4
Ntp299
Rp300
(dp301
S'start'
p302
S'0.0'
p303
sS'dim'
p304
I0
sS'end'
p305
S'47.0'
p306
sS'composition'
p307
(lp308
(lp309
S'12'
p310
aa(lp311
S'11'
p312
aasbag2
(g3
g4
Ntp313
Rp314
(dp315
S'start'
p316
S'0.0'
p317
sS'dim'
p318
I0
sS'end'
p319
S'48.0'
p320
sS'composition'
p321
(lp322
(lp323
S'20'
p324
aa(lp325
S'18'
p326
aasbag2
(g3
g4
Ntp327
Rp328
(dp329
S'start'
p330
S'0.0'
p331
sS'dim'
p332
I0
sS'end'
p333
S'50.0'
p334
sS'composition'
p335
(lp336
(lp337
S'19'
p338
aa(lp339
S'15'
p340
aasbag2
(g3
g4
Ntp341
Rp342
(dp343
S'start'
p344
S'0.0'
p345
sS'dim'
p346
I0
sS'end'
p347
S'59.0'
p348
sS'composition'
p349
(lp350
(lp351
S'8'
p352
aa(lp353
S'17'
p354
aasbag2
(g3
g4
Ntp355
Rp356
(dp357
S'start'
p358
S'0.0'
p359
sS'dim'
p360
I0
sS'end'
p361
S'70.0'
p362
sS'composition'
p363
(lp364
(lp365
S'4'
p366
aa(lp367
S'1'
p368
aasbag2
(g3
g4
Ntp369
Rp370
(dp371
S'start'
p372
S'0.0'
p373
sS'dim'
p374
I0
sS'end'
p375
S'74.0'
p376
sS'composition'
p377
(lp378
(lp379
S'20'
p380
aa(lp381
S'23'
p382
aasbag2
(g3
g4
Ntp383
Rp384
(dp385
S'start'
p386
S'0.0'
p387
sS'dim'
p388
I0
sS'end'
p389
S'79.0'
p390
sS'composition'
p391
(lp392
(lp393
S'10'
p394
aa(lp395
S'1'
p396
aasbag2
(g3
g4
Ntp397
Rp398
(dp399
S'start'
p400
S'0.0'
p401
sS'dim'
p402
I0
sS'end'
p403
S'303'
p404
sS'composition'
p405
(lp406
(lp407
S'0'
p408
aasbasI1
(lp409
g2
(g3
g4
Ntp410
Rp411
(dp412
S'start'
p413
S'10.0'
p414
sS'dim'
p415
I1
sS'end'
p416
S'17.0'
p417
sS'composition'
p418
(lp419
(lp420
S'3'
p421
aS'16'
p422
aa(lp423
S'1'
p424
aS'15'
p425
aa(lp426
S'1'
p427
aS'3'
p428
aa(lp429
S'15'
p430
aS'21'
p431
aa(lp432
S'16'
p433
aS'21'
p434
aasbag2
(g3
g4
Ntp435
Rp436
(dp437
S'start'
p438
S'60.0'
p439
sS'dim'
p440
I1
sS'end'
p441
S'62.0'
p442
sS'composition'
p443
(lp444
(lp445
S'15'
p446
aS'24'
p447
aa(lp448
S'15'
p449
aS'19'
p450
aa(lp451
S'20'
p452
aS'24'
p453
aa(lp454
S'19'
p455
aS'20'
p456
aasbag2
(g3
g4
Ntp457
Rp458
(dp459
S'start'
p460
S'51.0'
p461
sS'dim'
p462
I1
sS'end'
p463
S'63.0'
p464
sS'composition'
p465
(lp466
(lp467
S'16'
p468
aS'18'
p469
aa(lp470
S'5'
p471
aS'18'
p472
aa(lp473
S'16'
p474
aS'21'
p475
aa(lp476
S'5'
p477
aS'21'
p478
aasbag2
(g3
g4
Ntp479
Rp480
(dp481
S'start'
p482
S'58.0'
p483
sS'dim'
p484
I1
sS'end'
p485
S'75.0'
p486
sS'composition'
p487
(lp488
(lp489
S'15'
p490
aS'24'
p491
aa(lp492
S'1'
p493
aS'24'
p494
aa(lp495
S'18'
p496
aS'20'
p497
aa(lp498
S'14'
p499
aS'18'
p500
aa(lp501
S'0'
p502
aS'14'
p503
aa(lp504
S'15'
p505
aS'19'
p506
aa(lp507
S'19'
p508
aS'20'
p509
aa(lp510
S'0'
p511
aS'1'
p512
aasbag2
(g3
g4
Ntp513
Rp514
(dp515
S'start'
p516
S'64.0'
p517
sS'dim'
p518
I1
sS'end'
p519
S'76.0'
p520
sS'composition'
p521
(lp522
(lp523
S'2'
p524
aS'7'
p525
aa(lp526
S'0'
p527
aS'2'
p528
aa(lp529
S'5'
p530
aS'7'
p531
aa(lp532
S'0'
p533
aS'5'
p534
aasbag2
(g3
g4
Ntp535
Rp536
(dp537
S'start'
p538
S'42.0'
p539
sS'dim'
p540
I1
sS'end'
p541
S'81.0'
p542
sS'composition'
p543
(lp544
(lp545
S'13'
p546
aS'14'
p547
aa(lp548
S'11'
p549
aS'13'
p550
aa(lp551
S'14'
p552
aS'26'
p553
aa(lp554
S'11'
p555
aS'26'
p556
aasbag2
(g3
g4
Ntp557
Rp558
(dp559
S'start'
p560
S'55.0'
p561
sS'dim'
p562
I1
sS'end'
p563
S'88.0'
p564
sS'composition'
p565
(lp566
(lp567
S'15'
p568
aS'24'
p569
aa(lp570
S'1'
p571
aS'29'
p572
aa(lp573
S'18'
p574
aS'22'
p575
aa(lp576
S'19'
p577
aS'20'
p578
aa(lp579
S'15'
p580
aS'19'
p581
aa(lp582
S'1'
p583
aS'24'
p584
aa(lp585
S'18'
p586
aS'20'
p587
aa(lp588
S'22'
p589
aS'29'
p590
aasbag2
(g3
g4
Ntp591
Rp592
(dp593
S'start'
p594
S'52.0'
p595
sS'dim'
p596
I1
sS'end'
p597
S'97.0'
p598
sS'composition'
p599
(lp600
(lp601
S'11'
p602
aS'28'
p603
aa(lp604
S'0'
p605
aS'1'
p606
aa(lp607
S'1'
p608
aS'29'
p609
aa(lp610
S'11'
p611
aS'13'
p612
aa(lp613
S'0'
p614
aS'14'
p615
aa(lp616
S'22'
p617
aS'28'
p618
aa(lp619
S'13'
p620
aS'14'
p621
aa(lp622
S'22'
p623
aS'29'
p624
aasbag2
(g3
g4
Ntp625
Rp626
(dp627
S'start'
p628
S'41.0'
p629
sS'dim'
p630
I1
sS'end'
p631
S'98.0'
p632
sS'composition'
p633
(lp634
(lp635
S'16'
p636
aS'18'
p637
aa(lp638
S'16'
p639
aS'29'
p640
aa(lp641
S'22'
p642
aS'29'
p643
aa(lp644
S'18'
p645
aS'22'
p646
aasbag2
(g3
g4
Ntp647
Rp648
(dp649
S'start'
p650
S'54.0'
p651
sS'dim'
p652
I1
sS'end'
p653
S'99.0'
p654
sS'composition'
p655
(lp656
(lp657
S'18'
p658
aS'22'
p659
aa(lp660
S'0'
p661
aS'2'
p662
aa(lp663
S'2'
p664
aS'7'
p665
aa(lp666
S'5'
p667
aS'7'
p668
aa(lp669
S'1'
p670
aS'29'
p671
aa(lp672
S'0'
p673
aS'1'
p674
aa(lp675
S'22'
p676
aS'29'
p677
aa(lp678
S'5'
p679
aS'18'
p680
aasbag2
(g3
g4
Ntp681
Rp682
(dp683
S'start'
p684
S'102.0'
p685
sS'dim'
p686
I1
sS'end'
p687
S'105.0'
p688
sS'composition'
p689
(lp690
(lp691
S'1'
p692
aS'10'
p693
aa(lp694
S'2'
p695
aS'9'
p696
aa(lp697
S'2'
p698
aS'10'
p699
aa(lp700
S'1'
p701
aS'9'
p702
aasbag2
(g3
g4
Ntp703
Rp704
(dp705
S'start'
p706
S'125.0'
p707
sS'dim'
p708
I1
sS'end'
p709
S'126.0'
p710
sS'composition'
p711
(lp712
(lp713
S'1'
p714
aS'10'
p715
aa(lp716
S'1'
p717
aS'15'
p718
aa(lp719
S'15'
p720
aS'25'
p721
aa(lp722
S'10'
p723
aS'25'
p724
aasbag2
(g3
g4
Ntp725
Rp726
(dp727
S'start'
p728
S'39.0'
p729
sS'dim'
p730
I1
sS'end'
p731
S'132.0'
p732
sS'composition'
p733
(lp734
(lp735
S'1'
p736
aS'29'
p737
aa(lp738
S'8'
p739
aS'9'
p740
aa(lp741
S'16'
p742
aS'29'
p743
aa(lp744
S'5'
p745
aS'18'
p746
aa(lp747
S'16'
p748
aS'18'
p749
aa(lp750
S'1'
p751
aS'8'
p752
aa(lp753
S'5'
p754
aS'7'
p755
aa(lp756
S'7'
p757
aS'9'
p758
aasbag2
(g3
g4
Ntp759
Rp760
(dp761
S'start'
p762
S'137.0'
p763
sS'dim'
p764
I1
sS'end'
p765
S'158.0'
p766
sS'composition'
p767
(lp768
(lp769
S'1'
p770
aS'24'
p771
aa(lp772
S'9'
p773
aS'23'
p774
aa(lp775
S'23'
p776
aS'24'
p777
aa(lp778
S'1'
p779
aS'9'
p780
aasbag2
(g3
g4
Ntp781
Rp782
(dp783
S'start'
p784
S'71.0'
p785
sS'dim'
p786
I1
sS'end'
p787
S'179.0'
p788
sS'composition'
p789
(lp790
(lp791
S'4'
p792
aS'19'
p793
aa(lp794
S'4'
p795
aS'7'
p796
aa(lp797
S'1'
p798
aS'15'
p799
aa(lp800
S'15'
p801
aS'19'
p802
aa(lp803
S'5'
p804
aS'7'
p805
aa(lp806
S'0'
p807
aS'5'
p808
aa(lp809
S'0'
p810
aS'1'
p811
aasbag2
(g3
g4
Ntp812
Rp813
(dp814
S'start'
p815
S'95.0'
p816
sS'dim'
p817
I1
sS'end'
p818
S'184.0'
p819
sS'composition'
p820
(lp821
(lp822
S'1'
p823
aS'10'
p824
aa(lp825
S'13'
p826
aS'14'
p827
aa(lp828
S'13'
p829
aS'26'
p830
aa(lp831
S'0'
p832
aS'14'
p833
aa(lp834
S'11'
p835
aS'26'
p836
aa(lp837
S'11'
p838
aS'25'
p839
aa(lp840
S'10'
p841
aS'25'
p842
aa(lp843
S'0'
p844
aS'1'
p845
aasbas.