(dp0
I0
(lp1
ccopy_reg
_reconstructor
p2
(cHoles
Cycle
p3
c__builtin__
object
p4
Ntp5
Rp6
(dp7
S'start'
p8
S'0.0'
p9
sS'dim'
p10
I0
sS'end'
p11
S'1.0'
p12
sS'composition'
p13
(lp14
(lp15
S'7'
p16
aa(lp17
S'5'
p18
aasbag2
(g3
g4
Ntp19
Rp20
(dp21
S'start'
p22
S'0.0'
p23
sS'dim'
p24
I0
sS'end'
p25
S'2.0'
p26
sS'composition'
p27
(lp28
(lp29
S'2'
p30
aa(lp31
S'5'
p32
aasbag2
(g3
g4
Ntp33
Rp34
(dp35
S'start'
p36
S'0.0'
p37
sS'dim'
p38
I0
sS'end'
p39
S'3.0'
p40
sS'composition'
p41
(lp42
(lp43
S'6'
p44
aa(lp45
S'2'
p46
aasbag2
(g3
g4
Ntp47
Rp48
(dp49
S'start'
p50
S'0.0'
p51
sS'dim'
p52
I0
sS'end'
p53
S'6.0'
p54
sS'composition'
p55
(lp56
(lp57
S'24'
p58
aa(lp59
S'11'
p60
aasbag2
(g3
g4
Ntp61
Rp62
(dp63
S'start'
p64
S'0.0'
p65
sS'dim'
p66
I0
sS'end'
p67
S'8.0'
p68
sS'composition'
p69
(lp70
(lp71
S'20'
p72
aa(lp73
S'21'
p74
aasbag2
(g3
g4
Ntp75
Rp76
(dp77
S'start'
p78
S'0.0'
p79
sS'dim'
p80
I0
sS'end'
p81
S'9.0'
p82
sS'composition'
p83
(lp84
(lp85
S'19'
p86
aa(lp87
S'20'
p88
aasbag2
(g3
g4
Ntp89
Rp90
(dp91
S'start'
p92
S'0.0'
p93
sS'dim'
p94
I0
sS'end'
p95
S'10.0'
p96
sS'composition'
p97
(lp98
(lp99
S'10'
p100
aa(lp101
S'5'
p102
aasbag2
(g3
g4
Ntp103
Rp104
(dp105
S'start'
p106
S'0.0'
p107
sS'dim'
p108
I0
sS'end'
p109
S'11.0'
p110
sS'composition'
p111
(lp112
(lp113
S'2'
p114
aa(lp115
S'11'
p116
aasbag2
(g3
g4
Ntp117
Rp118
(dp119
S'start'
p120
S'0.0'
p121
sS'dim'
p122
I0
sS'end'
p123
S'12.0'
p124
sS'composition'
p125
(lp126
(lp127
S'19'
p128
aa(lp129
S'18'
p130
aasbag2
(g3
g4
Ntp131
Rp132
(dp133
S'start'
p134
S'0.0'
p135
sS'dim'
p136
I0
sS'end'
p137
S'13.0'
p138
sS'composition'
p139
(lp140
(lp141
S'8'
p142
aa(lp143
S'18'
p144
aasbag2
(g3
g4
Ntp145
Rp146
(dp147
S'start'
p148
S'0.0'
p149
sS'dim'
p150
I0
sS'end'
p151
S'14.0'
p152
sS'composition'
p153
(lp154
(lp155
S'15'
p156
aa(lp157
S'3'
p158
aasbag2
(g3
g4
Ntp159
Rp160
(dp161
S'start'
p162
S'0.0'
p163
sS'dim'
p164
I0
sS'end'
p165
S'15.0'
p166
sS'composition'
p167
(lp168
(lp169
S'2'
p170
aa(lp171
S'0'
p172
aasbag2
(g3
g4
Ntp173
Rp174
(dp175
S'start'
p176
S'0.0'
p177
sS'dim'
p178
I0
sS'end'
p179
S'16.0'
p180
sS'composition'
p181
(lp182
(lp183
S'8'
p184
aa(lp185
S'16'
p186
aasbag2
(g3
g4
Ntp187
Rp188
(dp189
S'start'
p190
S'0.0'
p191
sS'dim'
p192
I0
sS'end'
p193
S'18.0'
p194
sS'composition'
p195
(lp196
(lp197
S'8'
p198
aa(lp199
S'0'
p200
aasbag2
(g3
g4
Ntp201
Rp202
(dp203
S'start'
p204
S'0.0'
p205
sS'dim'
p206
I0
sS'end'
p207
S'20.0'
p208
sS'composition'
p209
(lp210
(lp211
S'8'
p212
aa(lp213
S'13'
p214
aasbag2
(g3
g4
Ntp215
Rp216
(dp217
S'start'
p218
S'0.0'
p219
sS'dim'
p220
I0
sS'end'
p221
S'23.0'
p222
sS'composition'
p223
(lp224
(lp225
S'16'
p226
aa(lp227
S'17'
p228
aasbag2
(g3
g4
Ntp229
Rp230
(dp231
S'start'
p232
S'0.0'
p233
sS'dim'
p234
I0
sS'end'
p235
S'24.0'
p236
sS'composition'
p237
(lp238
(lp239
S'8'
p240
aa(lp241
S'9'
p242
aasbag2
(g3
g4
Ntp243
Rp244
(dp245
S'start'
p246
S'0.0'
p247
sS'dim'
p248
I0
sS'end'
p249
S'28.0'
p250
sS'composition'
p251
(lp252
(lp253
S'4'
p254
aa(lp255
S'3'
p256
aasbag2
(g3
g4
Ntp257
Rp258
(dp259
S'start'
p260
S'0.0'
p261
sS'dim'
p262
I0
sS'end'
p263
S'30.0'
p264
sS'composition'
p265
(lp266
(lp267
S'3'
p268
aa(lp269
S'0'
p270
aasbag2
(g3
g4
Ntp271
Rp272
(dp273
S'start'
p274
S'0.0'
p275
sS'dim'
p276
I0
sS'end'
p277
S'31.0'
p278
sS'composition'
p279
(lp280
(lp281
S'25'
p282
aa(lp283
S'23'
p284
aasbag2
(g3
g4
Ntp285
Rp286
(dp287
S'start'
p288
S'0.0'
p289
sS'dim'
p290
I0
sS'end'
p291
S'32.0'
p292
sS'composition'
p293
(lp294
(lp295
S'20'
p296
aa(lp297
S'23'
p298
aasbag2
(g3
g4
Ntp299
Rp300
(dp301
S'start'
p302
S'0.0'
p303
sS'dim'
p304
I0
sS'end'
p305
S'37.0'
p306
sS'composition'
p307
(lp308
(lp309
S'0'
p310
aa(lp311
S'1'
p312
aasbag2
(g3
g4
Ntp313
Rp314
(dp315
S'start'
p316
S'0.0'
p317
sS'dim'
p318
I0
sS'end'
p319
S'89.0'
p320
sS'composition'
p321
(lp322
(lp323
S'12'
p324
aa(lp325
S'3'
p326
aasbag2
(g3
g4
Ntp327
Rp328
(dp329
S'start'
p330
S'0.0'
p331
sS'dim'
p332
I0
sS'end'
p333
S'102.0'
p334
sS'composition'
p335
(lp336
(lp337
S'14'
p338
aa(lp339
S'0'
p340
aasbag2
(g3
g4
Ntp341
Rp342
(dp343
S'start'
p344
S'0.0'
p345
sS'dim'
p346
I0
sS'end'
p347
S'259'
p348
sS'composition'
p349
(lp350
(lp351
S'0'
p352
aasbasI1
(lp353
g2
(g3
g4
Ntp354
Rp355
(dp356
S'start'
p357
S'29.0'
p358
sS'dim'
p359
I1
sS'end'
p360
S'39.0'
p361
sS'composition'
p362
(lp363
(lp364
S'16'
p365
aS'19'
p366
aa(lp367
S'0'
p368
aS'19'
p369
aa(lp370
S'5'
p371
aS'16'
p372
aa(lp373
S'0'
p374
aS'5'
p375
aasbag2
(g3
g4
Ntp376
Rp377
(dp378
S'start'
p379
S'40.0'
p380
sS'dim'
p381
I1
sS'end'
p382
S'53.0'
p383
sS'composition'
p384
(lp385
(lp386
S'18'
p387
aS'21'
p388
aa(lp389
S'9'
p390
aS'21'
p391
aa(lp392
S'18'
p393
aS'19'
p394
aa(lp395
S'9'
p396
aS'25'
p397
aa(lp398
S'19'
p399
aS'20'
p400
aa(lp401
S'20'
p402
aS'23'
p403
aa(lp404
S'23'
p405
aS'25'
p406
aasbag2
(g3
g4
Ntp407
Rp408
(dp409
S'start'
p410
S'43.0'
p411
sS'dim'
p412
I1
sS'end'
p413
S'54.0'
p414
sS'composition'
p415
(lp416
(lp417
S'3'
p418
aS'4'
p419
aa(lp420
S'4'
p421
aS'17'
p422
aa(lp423
S'15'
p424
aS'17'
p425
aa(lp426
S'3'
p427
aS'15'
p428
aasbag2
(g3
g4
Ntp429
Rp430
(dp431
S'start'
p432
S'26.0'
p433
sS'dim'
p434
I1
sS'end'
p435
S'87.0'
p436
sS'composition'
p437
(lp438
(lp439
S'0'
p440
aS'19'
p441
aa(lp442
S'18'
p443
aS'21'
p444
aa(lp445
S'8'
p446
aS'24'
p447
aa(lp448
S'0'
p449
aS'6'
p450
aa(lp451
S'2'
p452
aS'11'
p453
aa(lp454
S'2'
p455
aS'6'
p456
aa(lp457
S'8'
p458
aS'21'
p459
aa(lp460
S'11'
p461
aS'24'
p462
aa(lp463
S'19'
p464
aS'20'
p465
aa(lp466
S'18'
p467
aS'20'
p468
aasbag2
(g3
g4
Ntp469
Rp470
(dp471
S'start'
p472
S'72.0'
p473
sS'dim'
p474
I1
sS'end'
p475
S'99.0'
p476
sS'composition'
p477
(lp478
(lp479
S'20'
p480
aS'21'
p481
aa(lp482
S'16'
p483
aS'20'
p484
aa(lp485
S'21'
p486
aS'25'
p487
aa(lp488
S'15'
p489
aS'17'
p490
aa(lp491
S'15'
p492
aS'25'
p493
aa(lp494
S'16'
p495
aS'17'
p496
aasbag2
(g3
g4
Ntp497
Rp498
(dp499
S'start'
p500
S'76.0'
p501
sS'dim'
p502
I1
sS'end'
p503
S'110.0'
p504
sS'composition'
p505
(lp506
(lp507
S'4'
p508
aS'15'
p509
aa(lp510
S'9'
p511
aS'25'
p512
aa(lp513
S'4'
p514
aS'9'
p515
aa(lp516
S'15'
p517
aS'25'
p518
aasbag2
(g3
g4
Ntp519
Rp520
(dp521
S'start'
p522
S'101.0'
p523
sS'dim'
p524
I1
sS'end'
p525
S'118.0'
p526
sS'composition'
p527
(lp528
(lp529
S'16'
p530
aS'19'
p531
aa(lp532
S'19'
p533
aS'23'
p534
aa(lp535
S'12'
p536
aS'23'
p537
aa(lp538
S'15'
p539
aS'16'
p540
aa(lp541
S'12'
p542
aS'15'
p543
aasbag2
(g3
g4
Ntp544
Rp545
(dp546
S'start'
p547
S'142.0'
p548
sS'dim'
p549
I1
sS'end'
p550
S'167.0'
p551
sS'composition'
p552
(lp553
(lp554
S'5'
p555
aS'10'
p556
aa(lp557
S'12'
p558
aS'19'
p559
aa(lp560
S'10'
p561
aS'12'
p562
aa(lp563
S'5'
p564
aS'19'
p565
aasbas.