(dp0
I0
(lp1
ccopy_reg
_reconstructor
p2
(cHoles
Cycle
p3
c__builtin__
object
p4
Ntp5
Rp6
(dp7
S'start'
p8
S'0.0'
p9
sS'dim'
p10
I0
sS'end'
p11
S'1.0'
p12
sS'composition'
p13
(lp14
(lp15
S'7'
p16
aa(lp17
S'6'
p18
aasbag2
(g3
g4
Ntp19
Rp20
(dp21
S'start'
p22
S'0.0'
p23
sS'dim'
p24
I0
sS'end'
p25
S'2.0'
p26
sS'composition'
p27
(lp28
(lp29
S'10'
p30
aa(lp31
S'5'
p32
aasbag2
(g3
g4
Ntp33
Rp34
(dp35
S'start'
p36
S'0.0'
p37
sS'dim'
p38
I0
sS'end'
p39
S'3.0'
p40
sS'composition'
p41
(lp42
(lp43
S'9'
p44
aa(lp45
S'22'
p46
aasbag2
(g3
g4
Ntp47
Rp48
(dp49
S'start'
p50
S'0.0'
p51
sS'dim'
p52
I0
sS'end'
p53
S'4.0'
p54
sS'composition'
p55
(lp56
(lp57
S'5'
p58
aa(lp59
S'1'
p60
aasbag2
(g3
g4
Ntp61
Rp62
(dp63
S'start'
p64
S'0.0'
p65
sS'dim'
p66
I0
sS'end'
p67
S'5.0'
p68
sS'composition'
p69
(lp70
(lp71
S'6'
p72
aa(lp73
S'11'
p74
aasbag2
(g3
g4
Ntp75
Rp76
(dp77
S'start'
p78
S'0.0'
p79
sS'dim'
p80
I0
sS'end'
p81
S'6.0'
p82
sS'composition'
p83
(lp84
(lp85
S'2'
p86
aa(lp87
S'1'
p88
aasbag2
(g3
g4
Ntp89
Rp90
(dp91
S'start'
p92
S'0.0'
p93
sS'dim'
p94
I0
sS'end'
p95
S'7.0'
p96
sS'composition'
p97
(lp98
(lp99
S'19'
p100
aa(lp101
S'9'
p102
aasbag2
(g3
g4
Ntp103
Rp104
(dp105
S'start'
p106
S'0.0'
p107
sS'dim'
p108
I0
sS'end'
p109
S'8.0'
p110
sS'composition'
p111
(lp112
(lp113
S'12'
p114
aa(lp115
S'5'
p116
aasbag2
(g3
g4
Ntp117
Rp118
(dp119
S'start'
p120
S'0.0'
p121
sS'dim'
p122
I0
sS'end'
p123
S'9.0'
p124
sS'composition'
p125
(lp126
(lp127
S'20'
p128
aa(lp129
S'18'
p130
aasbag2
(g3
g4
Ntp131
Rp132
(dp133
S'start'
p134
S'0.0'
p135
sS'dim'
p136
I0
sS'end'
p137
S'11.0'
p138
sS'composition'
p139
(lp140
(lp141
S'13'
p142
aa(lp143
S'0'
p144
aasbag2
(g3
g4
Ntp145
Rp146
(dp147
S'start'
p148
S'0.0'
p149
sS'dim'
p150
I0
sS'end'
p151
S'12.0'
p152
sS'composition'
p153
(lp154
(lp155
S'16'
p156
aa(lp157
S'4'
p158
aasbag2
(g3
g4
Ntp159
Rp160
(dp161
S'start'
p162
S'0.0'
p163
sS'dim'
p164
I0
sS'end'
p165
S'13.0'
p166
sS'composition'
p167
(lp168
(lp169
S'8'
p170
aa(lp171
S'6'
p172
aasbag2
(g3
g4
Ntp173
Rp174
(dp175
S'start'
p176
S'0.0'
p177
sS'dim'
p178
I0
sS'end'
p179
S'14.0'
p180
sS'composition'
p181
(lp182
(lp183
S'4'
p184
aa(lp185
S'3'
p186
aasbag2
(g3
g4
Ntp187
Rp188
(dp189
S'start'
p190
S'0.0'
p191
sS'dim'
p192
I0
sS'end'
p193
S'15.0'
p194
sS'composition'
p195
(lp196
(lp197
S'8'
p198
aa(lp199
S'21'
p200
aasbag2
(g3
g4
Ntp201
Rp202
(dp203
S'start'
p204
S'0.0'
p205
sS'dim'
p206
I0
sS'end'
p207
S'18.0'
p208
sS'composition'
p209
(lp210
(lp211
S'15'
p212
aa(lp213
S'3'
p214
aasbag2
(g3
g4
Ntp215
Rp216
(dp217
S'start'
p218
S'0.0'
p219
sS'dim'
p220
I0
sS'end'
p221
S'20.0'
p222
sS'composition'
p223
(lp224
(lp225
S'1'
p226
aa(lp227
S'0'
p228
aasbag2
(g3
g4
Ntp229
Rp230
(dp231
S'start'
p232
S'0.0'
p233
sS'dim'
p234
I0
sS'end'
p235
S'21.0'
p236
sS'composition'
p237
(lp238
(lp239
S'3'
p240
aa(lp241
S'17'
p242
aasbag2
(g3
g4
Ntp243
Rp244
(dp245
S'start'
p246
S'0.0'
p247
sS'dim'
p248
I0
sS'end'
p249
S'22.0'
p250
sS'composition'
p251
(lp252
(lp253
S'8'
p254
aa(lp255
S'9'
p256
aasbag2
(g3
g4
Ntp257
Rp258
(dp259
S'start'
p260
S'0.0'
p261
sS'dim'
p262
I0
sS'end'
p263
S'25.0'
p264
sS'composition'
p265
(lp266
(lp267
S'10'
p268
aa(lp269
S'23'
p270
aasbag2
(g3
g4
Ntp271
Rp272
(dp273
S'start'
p274
S'0.0'
p275
sS'dim'
p276
I0
sS'end'
p277
S'26.0'
p278
sS'composition'
p279
(lp280
(lp281
S'2'
p282
aa(lp283
S'3'
p284
aasbag2
(g3
g4
Ntp285
Rp286
(dp287
S'start'
p288
S'0.0'
p289
sS'dim'
p290
I0
sS'end'
p291
S'39.0'
p292
sS'composition'
p293
(lp294
(lp295
S'8'
p296
aa(lp297
S'18'
p298
aasbag2
(g3
g4
Ntp299
Rp300
(dp301
S'start'
p302
S'0.0'
p303
sS'dim'
p304
I0
sS'end'
p305
S'40.0'
p306
sS'composition'
p307
(lp308
(lp309
S'14'
p310
aa(lp311
S'9'
p312
aasbag2
(g3
g4
Ntp313
Rp314
(dp315
S'start'
p316
S'0.0'
p317
sS'dim'
p318
I0
sS'end'
p319
S'43.0'
p320
sS'composition'
p321
(lp322
(lp323
S'25'
p324
aa(lp325
S'24'
p326
aasbag2
(g3
g4
Ntp327
Rp328
(dp329
S'start'
p330
S'0.0'
p331
sS'dim'
p332
I0
sS'end'
p333
S'66.0'
p334
sS'composition'
p335
(lp336
(lp337
S'20'
p338
aa(lp339
S'24'
p340
aasbag2
(g3
g4
Ntp341
Rp342
(dp343
S'start'
p344
S'0.0'
p345
sS'dim'
p346
I0
sS'end'
p347
S'253'
p348
sS'composition'
p349
(lp350
(lp351
S'0'
p352
aasbasI1
(lp353
g2
(g3
g4
Ntp354
Rp355
(dp356
S'start'
p357
S'23.0'
p358
sS'dim'
p359
I1
sS'end'
p360
S'24.0'
p361
sS'composition'
p362
(lp363
(lp364
S'6'
p365
aS'7'
p366
aa(lp367
S'5'
p368
aS'12'
p369
aa(lp370
S'5'
p371
aS'7'
p372
aa(lp373
S'6'
p374
aS'12'
p375
aasbag2
(g3
g4
Ntp376
Rp377
(dp378
S'start'
p379
S'28.0'
p380
sS'dim'
p381
I1
sS'end'
p382
S'29.0'
p383
sS'composition'
p384
(lp385
(lp386
S'2'
p387
aS'6'
p388
aa(lp389
S'6'
p390
aS'7'
p391
aa(lp392
S'2'
p393
aS'5'
p394
aa(lp395
S'5'
p396
aS'7'
p397
aasbag2
(g3
g4
Ntp398
Rp399
(dp400
S'start'
p401
S'10.0'
p402
sS'dim'
p403
I1
sS'end'
p404
S'31.0'
p405
sS'composition'
p406
(lp407
(lp408
S'6'
p409
aS'11'
p410
aa(lp411
S'5'
p412
aS'10'
p413
aa(lp414
S'6'
p415
aS'7'
p416
aa(lp417
S'5'
p418
aS'7'
p419
aa(lp420
S'10'
p421
aS'11'
p422
aasbag2
(g3
g4
Ntp423
Rp424
(dp425
S'start'
p426
S'37.0'
p427
sS'dim'
p428
I1
sS'end'
p429
S'57.0'
p430
sS'composition'
p431
(lp432
(lp433
S'16'
p434
aS'19'
p435
aa(lp436
S'19'
p437
aS'22'
p438
aa(lp439
S'4'
p440
aS'16'
p441
aa(lp442
S'3'
p443
aS'22'
p444
aa(lp445
S'3'
p446
aS'4'
p447
aasbag2
(g3
g4
Ntp448
Rp449
(dp450
S'start'
p451
S'46.0'
p452
sS'dim'
p453
I1
sS'end'
p454
S'62.0'
p455
sS'composition'
p456
(lp457
(lp458
S'9'
p459
aS'19'
p460
aa(lp461
S'18'
p462
aS'21'
p463
aa(lp464
S'9'
p465
aS'21'
p466
aa(lp467
S'19'
p468
aS'20'
p469
aa(lp470
S'18'
p471
aS'20'
p472
aasbag2
(g3
g4
Ntp473
Rp474
(dp475
S'start'
p476
S'61.0'
p477
sS'dim'
p478
I1
sS'end'
p479
S'83.0'
p480
sS'composition'
p481
(lp482
(lp483
S'4'
p484
aS'5'
p485
aa(lp486
S'4'
p487
aS'16'
p488
aa(lp489
S'0'
p490
aS'13'
p491
aa(lp492
S'0'
p493
aS'5'
p494
aa(lp495
S'13'
p496
aS'16'
p497
aasbag2
(g3
g4
Ntp498
Rp499
(dp500
S'start'
p501
S'70.0'
p502
sS'dim'
p503
I1
sS'end'
p504
S'84.0'
p505
sS'composition'
p506
(lp507
(lp508
S'18'
p509
aS'21'
p510
aa(lp511
S'6'
p512
aS'8'
p513
aa(lp514
S'6'
p515
aS'18'
p516
aa(lp517
S'8'
p518
aS'21'
p519
aasbag2
(g3
g4
Ntp520
Rp521
(dp522
S'start'
p523
S'59.0'
p524
sS'dim'
p525
I1
sS'end'
p526
S'87.0'
p527
sS'composition'
p528
(lp529
(lp530
S'4'
p531
aS'5'
p532
aa(lp533
S'9'
p534
aS'19'
p535
aa(lp536
S'4'
p537
aS'19'
p538
aa(lp539
S'5'
p540
aS'8'
p541
aa(lp542
S'8'
p543
aS'21'
p544
aa(lp545
S'9'
p546
aS'21'
p547
aasbag2
(g3
g4
Ntp548
Rp549
(dp550
S'start'
p551
S'94.0'
p552
sS'dim'
p553
I1
sS'end'
p554
S'118.0'
p555
sS'composition'
p556
(lp557
(lp558
S'18'
p559
aS'20'
p560
aa(lp561
S'16'
p562
aS'20'
p563
aa(lp564
S'13'
p565
aS'18'
p566
aa(lp567
S'13'
p568
aS'16'
p569
aasbag2
(g3
g4
Ntp570
Rp571
(dp572
S'start'
p573
S'114.0'
p574
sS'dim'
p575
I1
sS'end'
p576
S'124.0'
p577
sS'composition'
p578
(lp579
(lp580
S'13'
p581
aS'16'
p582
aa(lp583
S'0'
p584
aS'7'
p585
aa(lp586
S'16'
p587
aS'20'
p588
aa(lp589
S'0'
p590
aS'13'
p591
aa(lp592
S'7'
p593
aS'20'
p594
aasbag2
(g3
g4
Ntp595
Rp596
(dp597
S'start'
p598
S'113.0'
p599
sS'dim'
p600
I1
sS'end'
p601
S'125.0'
p602
sS'composition'
p603
(lp604
(lp605
S'16'
p606
aS'19'
p607
aa(lp608
S'5'
p609
aS'23'
p610
aa(lp611
S'16'
p612
aS'25'
p613
aa(lp614
S'23'
p615
aS'25'
p616
aa(lp617
S'5'
p618
aS'19'
p619
aasbag2
(g3
g4
Ntp620
Rp621
(dp622
S'start'
p623
S'105.0'
p624
sS'dim'
p625
I1
sS'end'
p626
S'133.0'
p627
sS'composition'
p628
(lp629
(lp630
S'0'
p631
aS'12'
p632
aa(lp633
S'4'
p634
aS'16'
p635
aa(lp636
S'16'
p637
aS'25'
p638
aa(lp639
S'0'
p640
aS'4'
p641
aa(lp642
S'12'
p643
aS'25'
p644
aasbas.