(dp0
I0
(lp1
ccopy_reg
_reconstructor
p2
(cHoles
Cycle
p3
c__builtin__
object
p4
Ntp5
Rp6
(dp7
S'start'
p8
S'0.0'
p9
sS'dim'
p10
I0
sS'end'
p11
S'1.0'
p12
sS'composition'
p13
(lp14
(lp15
S'9'
p16
aa(lp17
S'22'
p18
aasbag2
(g3
g4
Ntp19
Rp20
(dp21
S'start'
p22
S'0.0'
p23
sS'dim'
p24
I0
sS'end'
p25
S'2.0'
p26
sS'composition'
p27
(lp28
(lp29
S'26'
p30
aa(lp31
S'22'
p32
aasbag2
(g3
g4
Ntp33
Rp34
(dp35
S'start'
p36
S'0.0'
p37
sS'dim'
p38
I0
sS'end'
p39
S'6.0'
p40
sS'composition'
p41
(lp42
(lp43
S'3'
p44
aa(lp45
S'9'
p46
aasbag2
(g3
g4
Ntp47
Rp48
(dp49
S'start'
p50
S'0.0'
p51
sS'dim'
p52
I0
sS'end'
p53
S'7.0'
p54
sS'composition'
p55
(lp56
(lp57
S'12'
p58
aa(lp59
S'9'
p60
aasbag2
(g3
g4
Ntp61
Rp62
(dp63
S'start'
p64
S'0.0'
p65
sS'dim'
p66
I0
sS'end'
p67
S'8.0'
p68
sS'composition'
p69
(lp70
(lp71
S'9'
p72
aa(lp73
S'17'
p74
aasbag2
(g3
g4
Ntp75
Rp76
(dp77
S'start'
p78
S'0.0'
p79
sS'dim'
p80
I0
sS'end'
p81
S'9.0'
p82
sS'composition'
p83
(lp84
(lp85
S'20'
p86
aa(lp87
S'5'
p88
aasbag2
(g3
g4
Ntp89
Rp90
(dp91
S'start'
p92
S'0.0'
p93
sS'dim'
p94
I0
sS'end'
p95
S'12.0'
p96
sS'composition'
p97
(lp98
(lp99
S'3'
p100
aa(lp101
S'5'
p102
aasbag2
(g3
g4
Ntp103
Rp104
(dp105
S'start'
p106
S'0.0'
p107
sS'dim'
p108
I0
sS'end'
p109
S'13.0'
p110
sS'composition'
p111
(lp112
(lp113
S'2'
p114
aa(lp115
S'1'
p116
aasbag2
(g3
g4
Ntp117
Rp118
(dp119
S'start'
p120
S'0.0'
p121
sS'dim'
p122
I0
sS'end'
p123
S'17.0'
p124
sS'composition'
p125
(lp126
(lp127
S'28'
p128
aa(lp129
S'13'
p130
aasbag2
(g3
g4
Ntp131
Rp132
(dp133
S'start'
p134
S'0.0'
p135
sS'dim'
p136
I0
sS'end'
p137
S'23.0'
p138
sS'composition'
p139
(lp140
(lp141
S'6'
p142
aa(lp143
S'1'
p144
aasbag2
(g3
g4
Ntp145
Rp146
(dp147
S'start'
p148
S'0.0'
p149
sS'dim'
p150
I0
sS'end'
p151
S'26.0'
p152
sS'composition'
p153
(lp154
(lp155
S'10'
p156
aa(lp157
S'13'
p158
aasbag2
(g3
g4
Ntp159
Rp160
(dp161
S'start'
p162
S'0.0'
p163
sS'dim'
p164
I0
sS'end'
p165
S'27.0'
p166
sS'composition'
p167
(lp168
(lp169
S'10'
p170
aa(lp171
S'2'
p172
aasbag2
(g3
g4
Ntp173
Rp174
(dp175
S'start'
p176
S'0.0'
p177
sS'dim'
p178
I0
sS'end'
p179
S'30.0'
p180
sS'composition'
p181
(lp182
(lp183
S'2'
p184
aa(lp185
S'3'
p186
aasbag2
(g3
g4
Ntp187
Rp188
(dp189
S'start'
p190
S'0.0'
p191
sS'dim'
p192
I0
sS'end'
p193
S'31.0'
p194
sS'composition'
p195
(lp196
(lp197
S'27'
p198
aa(lp199
S'13'
p200
aasbag2
(g3
g4
Ntp201
Rp202
(dp203
S'start'
p204
S'0.0'
p205
sS'dim'
p206
I0
sS'end'
p207
S'36.0'
p208
sS'composition'
p209
(lp210
(lp211
S'25'
p212
aa(lp213
S'16'
p214
aasbag2
(g3
g4
Ntp215
Rp216
(dp217
S'start'
p218
S'0.0'
p219
sS'dim'
p220
I0
sS'end'
p221
S'39.0'
p222
sS'composition'
p223
(lp224
(lp225
S'16'
p226
aa(lp227
S'6'
p228
aasbag2
(g3
g4
Ntp229
Rp230
(dp231
S'start'
p232
S'0.0'
p233
sS'dim'
p234
I0
sS'end'
p235
S'43.0'
p236
sS'composition'
p237
(lp238
(lp239
S'1'
p240
aa(lp241
S'0'
p242
aasbag2
(g3
g4
Ntp243
Rp244
(dp245
S'start'
p246
S'0.0'
p247
sS'dim'
p248
I0
sS'end'
p249
S'53.0'
p250
sS'composition'
p251
(lp252
(lp253
S'24'
p254
aa(lp255
S'13'
p256
aasbag2
(g3
g4
Ntp257
Rp258
(dp259
S'start'
p260
S'0.0'
p261
sS'dim'
p262
I0
sS'end'
p263
S'89.0'
p264
sS'composition'
p265
(lp266
(lp267
S'8'
p268
aa(lp269
S'4'
p270
aasbag2
(g3
g4
Ntp271
Rp272
(dp273
S'start'
p274
S'0.0'
p275
sS'dim'
p276
I0
sS'end'
p277
S'90.0'
p278
sS'composition'
p279
(lp280
(lp281
S'4'
p282
aa(lp283
S'1'
p284
aasbag2
(g3
g4
Ntp285
Rp286
(dp287
S'start'
p288
S'0.0'
p289
sS'dim'
p290
I0
sS'end'
p291
S'98.0'
p292
sS'composition'
p293
(lp294
(lp295
S'9'
p296
aa(lp297
S'11'
p298
aasbag2
(g3
g4
Ntp299
Rp300
(dp301
S'start'
p302
S'0.0'
p303
sS'dim'
p304
I0
sS'end'
p305
S'128.0'
p306
sS'composition'
p307
(lp308
(lp309
S'19'
p310
aa(lp311
S'16'
p312
aasbag2
(g3
g4
Ntp313
Rp314
(dp315
S'start'
p316
S'0.0'
p317
sS'dim'
p318
I0
sS'end'
p319
S'131.0'
p320
sS'composition'
p321
(lp322
(lp323
S'14'
p324
aa(lp325
S'15'
p326
aasbag2
(g3
g4
Ntp327
Rp328
(dp329
S'start'
p330
S'0.0'
p331
sS'dim'
p332
I0
sS'end'
p333
S'139.0'
p334
sS'composition'
p335
(lp336
(lp337
S'18'
p338
aa(lp339
S'13'
p340
aasbag2
(g3
g4
Ntp341
Rp342
(dp343
S'start'
p344
S'0.0'
p345
sS'dim'
p346
I0
sS'end'
p347
S'141.0'
p348
sS'composition'
p349
(lp350
(lp351
S'14'
p352
aa(lp353
S'0'
p354
aasbag2
(g3
g4
Ntp355
Rp356
(dp357
S'start'
p358
S'0.0'
p359
sS'dim'
p360
I0
sS'end'
p361
S'158.0'
p362
sS'composition'
p363
(lp364
(lp365
S'21'
p366
aa(lp367
S'4'
p368
aasbag2
(g3
g4
Ntp369
Rp370
(dp371
S'start'
p372
S'0.0'
p373
sS'dim'
p374
I0
sS'end'
p375
S'313.0'
p376
sS'composition'
p377
(lp378
(lp379
S'7'
p380
aa(lp381
S'2'
p382
aasbag2
(g3
g4
Ntp383
Rp384
(dp385
S'start'
p386
S'0.0'
p387
sS'dim'
p388
I0
sS'end'
p389
S'378'
p390
sS'composition'
p391
(lp392
(lp393
S'0'
p394
aasbasI1
(lp395
g2
(g3
g4
Ntp396
Rp397
(dp398
S'start'
p399
S'40.0'
p400
sS'dim'
p401
I1
sS'end'
p402
S'55.0'
p403
sS'composition'
p404
(lp405
(lp406
S'12'
p407
aS'22'
p408
aa(lp409
S'1'
p410
aS'6'
p411
aa(lp412
S'13'
p413
aS'26'
p414
aa(lp415
S'2'
p416
aS'28'
p417
aa(lp418
S'1'
p419
aS'2'
p420
aa(lp421
S'6'
p422
aS'22'
p423
aa(lp424
S'12'
p425
aS'26'
p426
aa(lp427
S'13'
p428
aS'28'
p429
aasbag2
(g3
g4
Ntp430
Rp431
(dp432
S'start'
p433
S'49.0'
p434
sS'dim'
p435
I1
sS'end'
p436
S'55.0'
p437
sS'composition'
p438
(lp439
(lp440
S'1'
p441
aS'6'
p442
aa(lp443
S'1'
p444
aS'27'
p445
aa(lp446
S'26'
p447
aS'27'
p448
aa(lp449
S'6'
p450
aS'26'
p451
aasbag2
(g3
g4
Ntp452
Rp453
(dp454
S'start'
p455
S'64.0'
p456
sS'dim'
p457
I1
sS'end'
p458
S'74.0'
p459
sS'composition'
p460
(lp461
(lp462
S'1'
p463
aS'28'
p464
aa(lp465
S'24'
p466
aS'28'
p467
aa(lp468
S'24'
p469
aS'26'
p470
aa(lp471
S'1'
p472
aS'26'
p473
aasbag2
(g3
g4
Ntp474
Rp475
(dp476
S'start'
p477
S'73.0'
p478
sS'dim'
p479
I1
sS'end'
p480
S'76.0'
p481
sS'composition'
p482
(lp483
(lp484
S'1'
p485
aS'28'
p486
aa(lp487
S'1'
p488
aS'6'
p489
aa(lp490
S'6'
p491
aS'16'
p492
aa(lp493
S'16'
p494
aS'28'
p495
aasbag2
(g3
g4
Ntp496
Rp497
(dp498
S'start'
p499
S'170.0'
p500
sS'dim'
p501
I1
sS'end'
p502
S'176.0'
p503
sS'composition'
p504
(lp505
(lp506
S'14'
p507
aS'15'
p508
aa(lp509
S'10'
p510
aS'13'
p511
aa(lp512
S'14'
p513
aS'28'
p514
aa(lp515
S'10'
p516
aS'28'
p517
aa(lp518
S'13'
p519
aS'15'
p520
aasbag2
(g3
g4
Ntp521
Rp522
(dp523
S'start'
p524
S'223.0'
p525
sS'dim'
p526
I1
sS'end'
p527
S'270.0'
p528
sS'composition'
p529
(lp530
(lp531
S'21'
p532
aS'24'
p533
aa(lp534
S'8'
p535
aS'24'
p536
aa(lp537
S'4'
p538
aS'21'
p539
aa(lp540
S'4'
p541
aS'8'
p542
aasbag2
(g3
g4
Ntp543
Rp544
(dp545
S'start'
p546
S'284.0'
p547
sS'dim'
p548
I1
sS'end'
p549
S'293.0'
p550
sS'composition'
p551
(lp552
(lp553
S'21'
p554
aS'24'
p555
aa(lp556
S'1'
p557
aS'19'
p558
aa(lp559
S'19'
p560
aS'21'
p561
aa(lp562
S'1'
p563
aS'24'
p564
aasbas.