(dp0
I0
(lp1
ccopy_reg
_reconstructor
p2
(cHoles
Cycle
p3
c__builtin__
object
p4
Ntp5
Rp6
(dp7
S'start'
p8
S'0.0'
p9
sS'dim'
p10
I0
sS'end'
p11
S'1.0'
p12
sS'composition'
p13
(lp14
(lp15
S'24'
p16
aa(lp17
S'15'
p18
aasbag2
(g3
g4
Ntp19
Rp20
(dp21
S'start'
p22
S'0.0'
p23
sS'dim'
p24
I0
sS'end'
p25
S'2.0'
p26
sS'composition'
p27
(lp28
(lp29
S'9'
p30
aa(lp31
S'1'
p32
aasbag2
(g3
g4
Ntp33
Rp34
(dp35
S'start'
p36
S'0.0'
p37
sS'dim'
p38
I0
sS'end'
p39
S'3.0'
p40
sS'composition'
p41
(lp42
(lp43
S'15'
p44
aa(lp45
S'21'
p46
aasbag2
(g3
g4
Ntp47
Rp48
(dp49
S'start'
p50
S'0.0'
p51
sS'dim'
p52
I0
sS'end'
p53
S'5.0'
p54
sS'composition'
p55
(lp56
(lp57
S'5'
p58
aa(lp59
S'1'
p60
aasbag2
(g3
g4
Ntp61
Rp62
(dp63
S'start'
p64
S'0.0'
p65
sS'dim'
p66
I0
sS'end'
p67
S'7.0'
p68
sS'composition'
p69
(lp70
(lp71
S'8'
p72
aa(lp73
S'1'
p74
aasbag2
(g3
g4
Ntp75
Rp76
(dp77
S'start'
p78
S'0.0'
p79
sS'dim'
p80
I0
sS'end'
p81
S'8.0'
p82
sS'composition'
p83
(lp84
(lp85
S'7'
p86
aa(lp87
S'1'
p88
aasbag2
(g3
g4
Ntp89
Rp90
(dp91
S'start'
p92
S'0.0'
p93
sS'dim'
p94
I0
sS'end'
p95
S'9.0'
p96
sS'composition'
p97
(lp98
(lp99
S'20'
p100
aa(lp101
S'15'
p102
aasbag2
(g3
g4
Ntp103
Rp104
(dp105
S'start'
p106
S'0.0'
p107
sS'dim'
p108
I0
sS'end'
p109
S'10.0'
p110
sS'composition'
p111
(lp112
(lp113
S'14'
p114
aa(lp115
S'15'
p116
aasbag2
(g3
g4
Ntp117
Rp118
(dp119
S'start'
p120
S'0.0'
p121
sS'dim'
p122
I0
sS'end'
p123
S'12.0'
p124
sS'composition'
p125
(lp126
(lp127
S'23'
p128
aa(lp129
S'22'
p130
aasbag2
(g3
g4
Ntp131
Rp132
(dp133
S'start'
p134
S'0.0'
p135
sS'dim'
p136
I0
sS'end'
p137
S'14.0'
p138
sS'composition'
p139
(lp140
(lp141
S'15'
p142
aa(lp143
S'18'
p144
aasbag2
(g3
g4
Ntp145
Rp146
(dp147
S'start'
p148
S'0.0'
p149
sS'dim'
p150
I0
sS'end'
p151
S'15.0'
p152
sS'composition'
p153
(lp154
(lp155
S'14'
p156
aa(lp157
S'22'
p158
aasbag2
(g3
g4
Ntp159
Rp160
(dp161
S'start'
p162
S'0.0'
p163
sS'dim'
p164
I0
sS'end'
p165
S'16.0'
p166
sS'composition'
p167
(lp168
(lp169
S'14'
p170
aa(lp171
S'13'
p172
aasbag2
(g3
g4
Ntp173
Rp174
(dp175
S'start'
p176
S'0.0'
p177
sS'dim'
p178
I0
sS'end'
p179
S'22.0'
p180
sS'composition'
p181
(lp182
(lp183
S'2'
p184
aa(lp185
S'13'
p186
aasbag2
(g3
g4
Ntp187
Rp188
(dp189
S'start'
p190
S'0.0'
p191
sS'dim'
p192
I0
sS'end'
p193
S'23.0'
p194
sS'composition'
p195
(lp196
(lp197
S'2'
p198
aa(lp199
S'1'
p200
aasbag2
(g3
g4
Ntp201
Rp202
(dp203
S'start'
p204
S'0.0'
p205
sS'dim'
p206
I0
sS'end'
p207
S'24.0'
p208
sS'composition'
p209
(lp210
(lp211
S'16'
p212
aa(lp213
S'15'
p214
aasbag2
(g3
g4
Ntp215
Rp216
(dp217
S'start'
p218
S'0.0'
p219
sS'dim'
p220
I0
sS'end'
p221
S'28.0'
p222
sS'composition'
p223
(lp224
(lp225
S'19'
p226
aa(lp227
S'18'
p228
aasbag2
(g3
g4
Ntp229
Rp230
(dp231
S'start'
p232
S'0.0'
p233
sS'dim'
p234
I0
sS'end'
p235
S'33.0'
p236
sS'composition'
p237
(lp238
(lp239
S'6'
p240
aa(lp241
S'1'
p242
aasbag2
(g3
g4
Ntp243
Rp244
(dp245
S'start'
p246
S'0.0'
p247
sS'dim'
p248
I0
sS'end'
p249
S'44.0'
p250
sS'composition'
p251
(lp252
(lp253
S'1'
p254
aa(lp255
S'0'
p256
aasbag2
(g3
g4
Ntp257
Rp258
(dp259
S'start'
p260
S'0.0'
p261
sS'dim'
p262
I0
sS'end'
p263
S'59.0'
p264
sS'composition'
p265
(lp266
(lp267
S'29'
p268
aa(lp269
S'17'
p270
aasbag2
(g3
g4
Ntp271
Rp272
(dp273
S'start'
p274
S'0.0'
p275
sS'dim'
p276
I0
sS'end'
p277
S'61.0'
p278
sS'composition'
p279
(lp280
(lp281
S'4'
p282
aa(lp283
S'1'
p284
aasbag2
(g3
g4
Ntp285
Rp286
(dp287
S'start'
p288
S'0.0'
p289
sS'dim'
p290
I0
sS'end'
p291
S'67.0'
p292
sS'composition'
p293
(lp294
(lp295
S'28'
p296
aa(lp297
S'22'
p298
aasbag2
(g3
g4
Ntp299
Rp300
(dp301
S'start'
p302
S'0.0'
p303
sS'dim'
p304
I0
sS'end'
p305
S'79.0'
p306
sS'composition'
p307
(lp308
(lp309
S'16'
p310
aa(lp311
S'17'
p312
aasbag2
(g3
g4
Ntp313
Rp314
(dp315
S'start'
p316
S'0.0'
p317
sS'dim'
p318
I0
sS'end'
p319
S'87.0'
p320
sS'composition'
p321
(lp322
(lp323
S'25'
p324
aa(lp325
S'10'
p326
aasbag2
(g3
g4
Ntp327
Rp328
(dp329
S'start'
p330
S'0.0'
p331
sS'dim'
p332
I0
sS'end'
p333
S'90.0'
p334
sS'composition'
p335
(lp336
(lp337
S'10'
p338
aa(lp339
S'26'
p340
aasbag2
(g3
g4
Ntp341
Rp342
(dp343
S'start'
p344
S'0.0'
p345
sS'dim'
p346
I0
sS'end'
p347
S'94.0'
p348
sS'composition'
p349
(lp350
(lp351
S'12'
p352
aa(lp353
S'27'
p354
aasbag2
(g3
g4
Ntp355
Rp356
(dp357
S'start'
p358
S'0.0'
p359
sS'dim'
p360
I0
sS'end'
p361
S'122.0'
p362
sS'composition'
p363
(lp364
(lp365
S'12'
p366
aa(lp367
S'2'
p368
aasbag2
(g3
g4
Ntp369
Rp370
(dp371
S'start'
p372
S'0.0'
p373
sS'dim'
p374
I0
sS'end'
p375
S'167.0'
p376
sS'composition'
p377
(lp378
(lp379
S'10'
p380
aa(lp381
S'2'
p382
aasbag2
(g3
g4
Ntp383
Rp384
(dp385
S'start'
p386
S'0.0'
p387
sS'dim'
p388
I0
sS'end'
p389
S'235.0'
p390
sS'composition'
p391
(lp392
(lp393
S'10'
p394
aa(lp395
S'11'
p396
aasbag2
(g3
g4
Ntp397
Rp398
(dp399
S'start'
p400
S'0.0'
p401
sS'dim'
p402
I0
sS'end'
p403
S'333'
p404
sS'composition'
p405
(lp406
(lp407
S'0'
p408
aasbasI1
(lp409
g2
(g3
g4
Ntp410
Rp411
(dp412
S'start'
p413
S'47.0'
p414
sS'dim'
p415
I1
sS'end'
p416
S'48.0'
p417
sS'composition'
p418
(lp419
(lp420
S'1'
p421
aS'16'
p422
aa(lp423
S'9'
p424
aS'15'
p425
aa(lp426
S'15'
p427
aS'16'
p428
aa(lp429
S'1'
p430
aS'9'
p431
aasbag2
(g3
g4
Ntp432
Rp433
(dp434
S'start'
p435
S'25.0'
p436
sS'dim'
p437
I1
sS'end'
p438
S'51.0'
p439
sS'composition'
p440
(lp441
(lp442
S'20'
p443
aS'21'
p444
aa(lp445
S'15'
p446
aS'24'
p447
aa(lp448
S'3'
p449
aS'16'
p450
aa(lp451
S'7'
p452
aS'9'
p453
aa(lp454
S'1'
p455
aS'3'
p456
aa(lp457
S'16'
p458
aS'24'
p459
aa(lp460
S'15'
p461
aS'21'
p462
aa(lp463
S'1'
p464
aS'9'
p465
aa(lp466
S'7'
p467
aS'20'
p468
aasbag2
(g3
g4
Ntp469
Rp470
(dp471
S'start'
p472
S'55.0'
p473
sS'dim'
p474
I1
sS'end'
p475
S'63.0'
p476
sS'composition'
p477
(lp478
(lp479
S'1'
p480
aS'6'
p481
aa(lp482
S'6'
p483
aS'19'
p484
aa(lp485
S'1'
p486
aS'5'
p487
aa(lp488
S'5'
p489
aS'19'
p490
aasbag2
(g3
g4
Ntp491
Rp492
(dp493
S'start'
p494
S'42.0'
p495
sS'dim'
p496
I1
sS'end'
p497
S'63.0'
p498
sS'composition'
p499
(lp500
(lp501
S'18'
p502
aS'19'
p503
aa(lp504
S'1'
p505
aS'16'
p506
aa(lp507
S'15'
p508
aS'16'
p509
aa(lp510
S'1'
p511
aS'5'
p512
aa(lp513
S'15'
p514
aS'18'
p515
aa(lp516
S'5'
p517
aS'19'
p518
aasbag2
(g3
g4
Ntp519
Rp520
(dp521
S'start'
p522
S'81.0'
p523
sS'dim'
p524
I1
sS'end'
p525
S'92.0'
p526
sS'composition'
p527
(lp528
(lp529
S'18'
p530
aS'29'
p531
aa(lp532
S'16'
p533
aS'29'
p534
aa(lp535
S'5'
p536
aS'16'
p537
aa(lp538
S'5'
p539
aS'18'
p540
aasbag2
(g3
g4
Ntp541
Rp542
(dp543
S'start'
p544
S'112.0'
p545
sS'dim'
p546
I1
sS'end'
p547
S'116.0'
p548
sS'composition'
p549
(lp550
(lp551
S'4'
p552
aS'18'
p553
aa(lp554
S'4'
p555
aS'7'
p556
aa(lp557
S'5'
p558
aS'18'
p559
aa(lp560
S'5'
p561
aS'7'
p562
aasbag2
(g3
g4
Ntp563
Rp564
(dp565
S'start'
p566
S'129.0'
p567
sS'dim'
p568
I1
sS'end'
p569
S'131.0'
p570
sS'composition'
p571
(lp572
(lp573
S'13'
p574
aS'20'
p575
aa(lp576
S'19'
p577
aS'22'
p578
aa(lp579
S'13'
p580
aS'22'
p581
aa(lp582
S'19'
p583
aS'20'
p584
aasbag2
(g3
g4
Ntp585
Rp586
(dp587
S'start'
p588
S'137.0'
p589
sS'dim'
p590
I1
sS'end'
p591
S'144.0'
p592
sS'composition'
p593
(lp594
(lp595
S'2'
p596
aS'12'
p597
aa(lp598
S'14'
p599
aS'27'
p600
aa(lp601
S'12'
p602
aS'27'
p603
aa(lp604
S'2'
p605
aS'14'
p606
aasbag2
(g3
g4
Ntp607
Rp608
(dp609
S'start'
p610
S'102.0'
p611
sS'dim'
p612
I1
sS'end'
p613
S'172.0'
p614
sS'composition'
p615
(lp616
(lp617
S'0'
p618
aS'8'
p619
aa(lp620
S'14'
p621
aS'22'
p622
aa(lp623
S'17'
p624
aS'28'
p625
aa(lp626
S'22'
p627
aS'28'
p628
aa(lp629
S'17'
p630
aS'29'
p631
aa(lp632
S'0'
p633
aS'14'
p634
aa(lp635
S'1'
p636
aS'3'
p637
aa(lp638
S'3'
p639
aS'5'
p640
aa(lp641
S'5'
p642
aS'29'
p643
aa(lp644
S'1'
p645
aS'8'
p646
aasbag2
(g3
g4
Ntp647
Rp648
(dp649
S'start'
p650
S'189.0'
p651
sS'dim'
p652
I1
sS'end'
p653
S'209.0'
p654
sS'composition'
p655
(lp656
(lp657
S'10'
p658
aS'25'
p659
aa(lp660
S'13'
p661
aS'25'
p662
aa(lp663
S'2'
p664
aS'9'
p665
aa(lp666
S'10'
p667
aS'15'
p668
aa(lp669
S'9'
p670
aS'15'
p671
aa(lp672
S'2'
p673
aS'13'
p674
aasbag2
(g3
g4
Ntp675
Rp676
(dp677
S'start'
p678
S'179.0'
p679
sS'dim'
p680
I1
sS'end'
p681
S'210.0'
p682
sS'composition'
p683
(lp684
(lp685
S'10'
p686
aS'26'
p687
aa(lp688
S'13'
p689
aS'25'
p690
aa(lp691
S'2'
p692
aS'27'
p693
aa(lp694
S'26'
p695
aS'28'
p696
aa(lp697
S'2'
p698
aS'9'
p699
aa(lp700
S'2'
p701
aS'15'
p702
aa(lp703
S'27'
p704
aS'28'
p705
aa(lp706
S'10'
p707
aS'25'
p708
aa(lp709
S'9'
p710
aS'15'
p711
aa(lp712
S'2'
p713
aS'13'
p714
aasbag2
(g3
g4
Ntp715
Rp716
(dp717
S'start'
p718
S'180.0'
p719
sS'dim'
p720
I1
sS'end'
p721
S'225.0'
p722
sS'composition'
p723
(lp724
(lp725
S'10'
p726
aS'26'
p727
aa(lp728
S'13'
p729
aS'25'
p730
aa(lp731
S'1'
p732
aS'6'
p733
aa(lp734
S'1'
p735
aS'16'
p736
aa(lp737
S'2'
p738
aS'16'
p739
aa(lp740
S'6'
p741
aS'26'
p742
aa(lp743
S'10'
p744
aS'25'
p745
aa(lp746
S'2'
p747
aS'13'
p748
aasbas.