(dp0
I0
(lp1
ccopy_reg
_reconstructor
p2
(cHoles
Cycle
p3
c__builtin__
object
p4
Ntp5
Rp6
(dp7
S'start'
p8
S'0.0'
p9
sS'dim'
p10
I0
sS'end'
p11
S'1.0'
p12
sS'composition'
p13
(lp14
(lp15
S'15'
p16
aa(lp17
S'17'
p18
aasbag2
(g3
g4
Ntp19
Rp20
(dp21
S'start'
p22
S'0.0'
p23
sS'dim'
p24
I0
sS'end'
p25
S'2.0'
p26
sS'composition'
p27
(lp28
(lp29
S'25'
p30
aa(lp31
S'23'
p32
aasbag2
(g3
g4
Ntp33
Rp34
(dp35
S'start'
p36
S'0.0'
p37
sS'dim'
p38
I0
sS'end'
p39
S'3.0'
p40
sS'composition'
p41
(lp42
(lp43
S'8'
p44
aa(lp45
S'5'
p46
aasbag2
(g3
g4
Ntp47
Rp48
(dp49
S'start'
p50
S'0.0'
p51
sS'dim'
p52
I0
sS'end'
p53
S'4.0'
p54
sS'composition'
p55
(lp56
(lp57
S'43'
p58
aa(lp59
S'22'
p60
aasbag2
(g3
g4
Ntp61
Rp62
(dp63
S'start'
p64
S'0.0'
p65
sS'dim'
p66
I0
sS'end'
p67
S'5.0'
p68
sS'composition'
p69
(lp70
(lp71
S'23'
p72
aa(lp73
S'44'
p74
aasbag2
(g3
g4
Ntp75
Rp76
(dp77
S'start'
p78
S'0.0'
p79
sS'dim'
p80
I0
sS'end'
p81
S'6.0'
p82
sS'composition'
p83
(lp84
(lp85
S'40'
p86
aa(lp87
S'39'
p88
aasbag2
(g3
g4
Ntp89
Rp90
(dp91
S'start'
p92
S'0.0'
p93
sS'dim'
p94
I0
sS'end'
p95
S'7.0'
p96
sS'composition'
p97
(lp98
(lp99
S'23'
p100
aa(lp101
S'5'
p102
aasbag2
(g3
g4
Ntp103
Rp104
(dp105
S'start'
p106
S'0.0'
p107
sS'dim'
p108
I0
sS'end'
p109
S'8.0'
p110
sS'composition'
p111
(lp112
(lp113
S'8'
p114
aa(lp115
S'20'
p116
aasbag2
(g3
g4
Ntp117
Rp118
(dp119
S'start'
p120
S'0.0'
p121
sS'dim'
p122
I0
sS'end'
p123
S'9.0'
p124
sS'composition'
p125
(lp126
(lp127
S'25'
p128
aa(lp129
S'45'
p130
aasbag2
(g3
g4
Ntp131
Rp132
(dp133
S'start'
p134
S'0.0'
p135
sS'dim'
p136
I0
sS'end'
p137
S'11.0'
p138
sS'composition'
p139
(lp140
(lp141
S'15'
p142
aa(lp143
S'1'
p144
aasbag2
(g3
g4
Ntp145
Rp146
(dp147
S'start'
p148
S'0.0'
p149
sS'dim'
p150
I0
sS'end'
p151
S'13.0'
p152
sS'composition'
p153
(lp154
(lp155
S'36'
p156
aa(lp157
S'10'
p158
aasbag2
(g3
g4
Ntp159
Rp160
(dp161
S'start'
p162
S'0.0'
p163
sS'dim'
p164
I0
sS'end'
p165
S'14.0'
p166
sS'composition'
p167
(lp168
(lp169
S'21'
p170
aa(lp171
S'3'
p172
aasbag2
(g3
g4
Ntp173
Rp174
(dp175
S'start'
p176
S'0.0'
p177
sS'dim'
p178
I0
sS'end'
p179
S'15.0'
p180
sS'composition'
p181
(lp182
(lp183
S'3'
p184
aa(lp185
S'18'
p186
aasbag2
(g3
g4
Ntp187
Rp188
(dp189
S'start'
p190
S'0.0'
p191
sS'dim'
p192
I0
sS'end'
p193
S'16.0'
p194
sS'composition'
p195
(lp196
(lp197
S'5'
p198
aa(lp199
S'1'
p200
aasbag2
(g3
g4
Ntp201
Rp202
(dp203
S'start'
p204
S'0.0'
p205
sS'dim'
p206
I0
sS'end'
p207
S'17.0'
p208
sS'composition'
p209
(lp210
(lp211
S'39'
p212
aa(lp213
S'15'
p214
aasbag2
(g3
g4
Ntp215
Rp216
(dp217
S'start'
p218
S'0.0'
p219
sS'dim'
p220
I0
sS'end'
p221
S'18.0'
p222
sS'composition'
p223
(lp224
(lp225
S'3'
p226
aa(lp227
S'13'
p228
aasbag2
(g3
g4
Ntp229
Rp230
(dp231
S'start'
p232
S'0.0'
p233
sS'dim'
p234
I0
sS'end'
p235
S'20.0'
p236
sS'composition'
p237
(lp238
(lp239
S'28'
p240
aa(lp241
S'31'
p242
aasbag2
(g3
g4
Ntp243
Rp244
(dp245
S'start'
p246
S'0.0'
p247
sS'dim'
p248
I0
sS'end'
p249
S'21.0'
p250
sS'composition'
p251
(lp252
(lp253
S'8'
p254
aa(lp255
S'19'
p256
aasbag2
(g3
g4
Ntp257
Rp258
(dp259
S'start'
p260
S'0.0'
p261
sS'dim'
p262
I0
sS'end'
p263
S'22.0'
p264
sS'composition'
p265
(lp266
(lp267
S'42'
p268
aa(lp269
S'28'
p270
aasbag2
(g3
g4
Ntp271
Rp272
(dp273
S'start'
p274
S'0.0'
p275
sS'dim'
p276
I0
sS'end'
p277
S'23.0'
p278
sS'composition'
p279
(lp280
(lp281
S'3'
p282
aa(lp283
S'11'
p284
aasbag2
(g3
g4
Ntp285
Rp286
(dp287
S'start'
p288
S'0.0'
p289
sS'dim'
p290
I0
sS'end'
p291
S'25.0'
p292
sS'composition'
p293
(lp294
(lp295
S'3'
p296
aa(lp297
S'1'
p298
aasbag2
(g3
g4
Ntp299
Rp300
(dp301
S'start'
p302
S'0.0'
p303
sS'dim'
p304
I0
sS'end'
p305
S'30.0'
p306
sS'composition'
p307
(lp308
(lp309
S'19'
p310
aa(lp311
S'28'
p312
aasbag2
(g3
g4
Ntp313
Rp314
(dp315
S'start'
p316
S'0.0'
p317
sS'dim'
p318
I0
sS'end'
p319
S'38.0'
p320
sS'composition'
p321
(lp322
(lp323
S'23'
p324
aa(lp325
S'24'
p326
aasbag2
(g3
g4
Ntp327
Rp328
(dp329
S'start'
p330
S'0.0'
p331
sS'dim'
p332
I0
sS'end'
p333
S'43.0'
p334
sS'composition'
p335
(lp336
(lp337
S'16'
p338
aa(lp339
S'14'
p340
aasbag2
(g3
g4
Ntp341
Rp342
(dp343
S'start'
p344
S'0.0'
p345
sS'dim'
p346
I0
sS'end'
p347
S'46.0'
p348
sS'composition'
p349
(lp350
(lp351
S'1'
p352
aa(lp353
S'0'
p354
aasbag2
(g3
g4
Ntp355
Rp356
(dp357
S'start'
p358
S'0.0'
p359
sS'dim'
p360
I0
sS'end'
p361
S'50.0'
p362
sS'composition'
p363
(lp364
(lp365
S'10'
p366
aa(lp367
S'1'
p368
aasbag2
(g3
g4
Ntp369
Rp370
(dp371
S'start'
p372
S'0.0'
p373
sS'dim'
p374
I0
sS'end'
p375
S'55.0'
p376
sS'composition'
p377
(lp378
(lp379
S'14'
p380
aa(lp381
S'1'
p382
aasbag2
(g3
g4
Ntp383
Rp384
(dp385
S'start'
p386
S'0.0'
p387
sS'dim'
p388
I0
sS'end'
p389
S'64.0'
p390
sS'composition'
p391
(lp392
(lp393
S'6'
p394
aa(lp395
S'5'
p396
aasbag2
(g3
g4
Ntp397
Rp398
(dp399
S'start'
p400
S'0.0'
p401
sS'dim'
p402
I0
sS'end'
p403
S'65.0'
p404
sS'composition'
p405
(lp406
(lp407
S'35'
p408
aa(lp409
S'33'
p410
aasbag2
(g3
g4
Ntp411
Rp412
(dp413
S'start'
p414
S'0.0'
p415
sS'dim'
p416
I0
sS'end'
p417
S'76.0'
p418
sS'composition'
p419
(lp420
(lp421
S'30'
p422
aa(lp423
S'15'
p424
aasbag2
(g3
g4
Ntp425
Rp426
(dp427
S'start'
p428
S'0.0'
p429
sS'dim'
p430
I0
sS'end'
p431
S'97.0'
p432
sS'composition'
p433
(lp434
(lp435
S'33'
p436
aa(lp437
S'13'
p438
aasbag2
(g3
g4
Ntp439
Rp440
(dp441
S'start'
p442
S'0.0'
p443
sS'dim'
p444
I0
sS'end'
p445
S'102.0'
p446
sS'composition'
p447
(lp448
(lp449
S'8'
p450
aa(lp451
S'12'
p452
aasbag2
(g3
g4
Ntp453
Rp454
(dp455
S'start'
p456
S'0.0'
p457
sS'dim'
p458
I0
sS'end'
p459
S'103.0'
p460
sS'composition'
p461
(lp462
(lp463
S'4'
p464
aa(lp465
S'3'
p466
aasbag2
(g3
g4
Ntp467
Rp468
(dp469
S'start'
p470
S'0.0'
p471
sS'dim'
p472
I0
sS'end'
p473
S'116.0'
p474
sS'composition'
p475
(lp476
(lp477
S'5'
p478
aa(lp479
S'22'
p480
aasbag2
(g3
g4
Ntp481
Rp482
(dp483
S'start'
p484
S'0.0'
p485
sS'dim'
p486
I0
sS'end'
p487
S'118.0'
p488
sS'composition'
p489
(lp490
(lp491
S'41'
p492
aa(lp493
S'28'
p494
aasbag2
(g3
g4
Ntp495
Rp496
(dp497
S'start'
p498
S'0.0'
p499
sS'dim'
p500
I0
sS'end'
p501
S'123.0'
p502
sS'composition'
p503
(lp504
(lp505
S'3'
p506
aa(lp507
S'9'
p508
aasbag2
(g3
g4
Ntp509
Rp510
(dp511
S'start'
p512
S'0.0'
p513
sS'dim'
p514
I0
sS'end'
p515
S'126.0'
p516
sS'composition'
p517
(lp518
(lp519
S'19'
p520
aa(lp521
S'27'
p522
aasbag2
(g3
g4
Ntp523
Rp524
(dp525
S'start'
p526
S'0.0'
p527
sS'dim'
p528
I0
sS'end'
p529
S'172.0'
p530
sS'composition'
p531
(lp532
(lp533
S'2'
p534
aa(lp535
S'1'
p536
aasbag2
(g3
g4
Ntp537
Rp538
(dp539
S'start'
p540
S'0.0'
p541
sS'dim'
p542
I0
sS'end'
p543
S'194.0'
p544
sS'composition'
p545
(lp546
(lp547
S'26'
p548
aa(lp549
S'22'
p550
aasbag2
(g3
g4
Ntp551
Rp552
(dp553
S'start'
p554
S'0.0'
p555
sS'dim'
p556
I0
sS'end'
p557
S'196.0'
p558
sS'composition'
p559
(lp560
(lp561
S'37'
p562
aa(lp563
S'14'
p564
aasbag2
(g3
g4
Ntp565
Rp566
(dp567
S'start'
p568
S'0.0'
p569
sS'dim'
p570
I0
sS'end'
p571
S'201.0'
p572
sS'composition'
p573
(lp574
(lp575
S'34'
p576
aa(lp577
S'32'
p578
aasbag2
(g3
g4
Ntp579
Rp580
(dp581
S'start'
p582
S'0.0'
p583
sS'dim'
p584
I0
sS'end'
p585
S'291.0'
p586
sS'composition'
p587
(lp588
(lp589
S'32'
p590
aa(lp591
S'13'
p592
aasbag2
(g3
g4
Ntp593
Rp594
(dp595
S'start'
p596
S'0.0'
p597
sS'dim'
p598
I0
sS'end'
p599
S'303.0'
p600
sS'composition'
p601
(lp602
(lp603
S'38'
p604
aa(lp605
S'14'
p606
aasbag2
(g3
g4
Ntp607
Rp608
(dp609
S'start'
p610
S'0.0'
p611
sS'dim'
p612
I0
sS'end'
p613
S'390.0'
p614
sS'composition'
p615
(lp616
(lp617
S'7'
p618
aa(lp619
S'5'
p620
aasbag2
(g3
g4
Ntp621
Rp622
(dp623
S'start'
p624
S'0.0'
p625
sS'dim'
p626
I0
sS'end'
p627
S'795'
p628
sS'composition'
p629
(lp630
(lp631
S'0'
p632
aasbasI1
(lp633
g2
(g3
g4
Ntp634
Rp635
(dp636
S'start'
p637
S'10.0'
p638
sS'dim'
p639
I1
sS'end'
p640
S'24.0'
p641
sS'composition'
p642
(lp643
(lp644
S'25'
p645
aS'45'
p646
aa(lp647
S'44'
p648
aS'45'
p649
aa(lp650
S'23'
p651
aS'25'
p652
aa(lp653
S'23'
p654
aS'44'
p655
aasbag2
(g3
g4
Ntp656
Rp657
(dp658
S'start'
p659
S'45.0'
p660
sS'dim'
p661
I1
sS'end'
p662
S'47.0'
p663
sS'composition'
p664
(lp665
(lp666
S'8'
p667
aS'23'
p668
aa(lp669
S'1'
p670
aS'44'
p671
aa(lp672
S'23'
p673
aS'44'
p674
aa(lp675
S'1'
p676
aS'8'
p677
aasbag2
(g3
g4
Ntp678
Rp679
(dp680
S'start'
p681
S'35.0'
p682
sS'dim'
p683
I1
sS'end'
p684
S'54.0'
p685
sS'composition'
p686
(lp687
(lp688
S'5'
p689
aS'8'
p690
aa(lp691
S'1'
p692
aS'17'
p693
aa(lp694
S'1'
p695
aS'5'
p696
aa(lp697
S'8'
p698
aS'18'
p699
aa(lp700
S'15'
p701
aS'17'
p702
aa(lp703
S'15'
p704
aS'18'
p705
aasbag2
(g3
g4
Ntp706
Rp707
(dp708
S'start'
p709
S'31.0'
p710
sS'dim'
p711
I1
sS'end'
p712
S'60.0'
p713
sS'composition'
p714
(lp715
(lp716
S'8'
p717
aS'31'
p718
aa(lp719
S'8'
p720
aS'19'
p721
aa(lp722
S'28'
p723
aS'31'
p724
aa(lp725
S'19'
p726
aS'29'
p727
aa(lp728
S'28'
p729
aS'29'
p730
aasbag2
(g3
g4
Ntp731
Rp732
(dp733
S'start'
p734
S'42.0'
p735
sS'dim'
p736
I1
sS'end'
p737
S'67.0'
p738
sS'composition'
p739
(lp740
(lp741
S'42'
p742
aS'45'
p743
aa(lp744
S'5'
p745
aS'23'
p746
aa(lp747
S'5'
p748
aS'8'
p749
aa(lp750
S'8'
p751
aS'28'
p752
aa(lp753
S'23'
p754
aS'45'
p755
aa(lp756
S'28'
p757
aS'42'
p758
aasbag2
(g3
g4
Ntp759
Rp760
(dp761
S'start'
p762
S'66.0'
p763
sS'dim'
p764
I1
sS'end'
p765
S'74.0'
p766
sS'composition'
p767
(lp768
(lp769
S'1'
p770
aS'31'
p771
aa(lp772
S'31'
p773
aS'42'
p774
aa(lp775
S'1'
p776
aS'36'
p777
aa(lp778
S'36'
p779
aS'42'
p780
aasbag2
(g3
g4
Ntp781
Rp782
(dp783
S'start'
p784
S'34.0'
p785
sS'dim'
p786
I1
sS'end'
p787
S'79.0'
p788
sS'composition'
p789
(lp790
(lp791
S'28'
p792
aS'42'
p793
aa(lp794
S'8'
p795
aS'31'
p796
aa(lp797
S'28'
p798
aS'31'
p799
aa(lp800
S'8'
p801
aS'20'
p802
aa(lp803
S'5'
p804
aS'8'
p805
aa(lp806
S'20'
p807
aS'42'
p808
aa(lp809
S'1'
p810
aS'5'
p811
aa(lp812
S'1'
p813
aS'8'
p814
aasbag2
(g3
g4
Ntp815
Rp816
(dp817
S'start'
p818
S'86.0'
p819
sS'dim'
p820
I1
sS'end'
p821
S'94.0'
p822
sS'composition'
p823
(lp824
(lp825
S'30'
p826
aS'40'
p827
aa(lp828
S'0'
p829
aS'30'
p830
aa(lp831
S'0'
p832
aS'21'
p833
aa(lp834
S'15'
p835
aS'21'
p836
aa(lp837
S'15'
p838
aS'40'
p839
aasbag2
(g3
g4
Ntp840
Rp841
(dp842
S'start'
p843
S'77.0'
p844
sS'dim'
p845
I1
sS'end'
p846
S'100.0'
p847
sS'composition'
p848
(lp849
(lp850
S'30'
p851
aS'40'
p852
aa(lp853
S'0'
p854
aS'21'
p855
aa(lp856
S'5'
p857
aS'30'
p858
aa(lp859
S'0'
p860
aS'3'
p861
aa(lp862
S'15'
p863
aS'21'
p864
aa(lp865
S'15'
p866
aS'40'
p867
aa(lp868
S'3'
p869
aS'5'
p870
aasbag2
(g3
g4
Ntp871
Rp872
(dp873
S'start'
p874
S'72.0'
p875
sS'dim'
p876
I1
sS'end'
p877
S'114.0'
p878
sS'composition'
p879
(lp880
(lp881
S'31'
p882
aS'39'
p883
aa(lp884
S'17'
p885
aS'39'
p886
aa(lp887
S'1'
p888
aS'31'
p889
aa(lp890
S'1'
p891
aS'17'
p892
aasbag2
(g3
g4
Ntp893
Rp894
(dp895
S'start'
p896
S'87.0'
p897
sS'dim'
p898
I1
sS'end'
p899
S'125.0'
p900
sS'composition'
p901
(lp902
(lp903
S'11'
p904
aS'13'
p905
aa(lp906
S'3'
p907
aS'18'
p908
aa(lp909
S'3'
p910
aS'13'
p911
aa(lp912
S'11'
p913
aS'18'
p914
aasbag2
(g3
g4
Ntp915
Rp916
(dp917
S'start'
p918
S'108.0'
p919
sS'dim'
p920
I1
sS'end'
p921
S'138.0'
p922
sS'composition'
p923
(lp924
(lp925
S'14'
p926
aS'15'
p927
aa(lp928
S'10'
p929
aS'14'
p930
aa(lp931
S'17'
p932
aS'36'
p933
aa(lp934
S'10'
p935
aS'36'
p936
aa(lp937
S'15'
p938
aS'17'
p939
aasbag2
(g3
g4
Ntp940
Rp941
(dp942
S'start'
p943
S'117.0'
p944
sS'dim'
p945
I1
sS'end'
p946
S'307.0'
p947
sS'composition'
p948
(lp949
(lp950
S'0'
p951
aS'40'
p952
aa(lp953
S'33'
p954
aS'40'
p955
aa(lp956
S'33'
p957
aS'35'
p958
aa(lp959
S'0'
p960
aS'3'
p961
aa(lp962
S'13'
p963
aS'35'
p964
aa(lp965
S'3'
p966
aS'13'
p967
aasbag2
(g3
g4
Ntp968
Rp969
(dp970
S'start'
p971
S'127.0'
p972
sS'dim'
p973
I1
sS'end'
p974
S'335.0'
p975
sS'composition'
p976
(lp977
(lp978
S'22'
p979
aS'45'
p980
aa(lp981
S'41'
p982
aS'42'
p983
aa(lp984
S'28'
p985
aS'45'
p986
aa(lp987
S'27'
p988
aS'41'
p989
aa(lp990
S'22'
p991
aS'27'
p992
aa(lp993
S'28'
p994
aS'42'
p995
aasbag2
(g3
g4
Ntp996
Rp997
(dp998
S'start'
p999
S'454.0'
p1000
sS'dim'
p1001
I1
sS'end'
p1002
S'484.0'
p1003
sS'composition'
p1004
(lp1005
(lp1006
S'0'
p1007
aS'40'
p1008
aa(lp1009
S'33'
p1010
aS'40'
p1011
aa(lp1012
S'0'
p1013
aS'4'
p1014
aa(lp1015
S'33'
p1016
aS'34'
p1017
aa(lp1018
S'4'
p1019
aS'34'
p1020
aasbag2
(g3
g4
Ntp1021
Rp1022
(dp1023
S'start'
p1024
S'296.0'
p1025
sS'dim'
p1026
I1
sS'end'
p1027
S'519.0'
p1028
sS'composition'
p1029
(lp1030
(lp1031
S'10'
p1032
aS'14'
p1033
aa(lp1034
S'41'
p1035
aS'42'
p1036
aa(lp1037
S'37'
p1038
aS'41'
p1039
aa(lp1040
S'14'
p1041
aS'37'
p1042
aa(lp1043
S'10'
p1044
aS'42'
p1045
aasbag2
(g3
g4
Ntp1046
Rp1047
(dp1048
S'start'
p1049
S'329.0'
p1050
sS'dim'
p1051
I1
sS'end'
p1052
S'523.0'
p1053
sS'composition'
p1054
(lp1055
(lp1056
S'33'
p1057
aS'34'
p1058
aa(lp1059
S'32'
p1060
aS'34'
p1061
aa(lp1062
S'2'
p1063
aS'30'
p1064
aa(lp1065
S'2'
p1066
aS'32'
p1067
aa(lp1068
S'30'
p1069
aS'33'
p1070
aasbas.