(dp0
I0
(lp1
ccopy_reg
_reconstructor
p2
(cHoles
Cycle
p3
c__builtin__
object
p4
Ntp5
Rp6
(dp7
S'start'
p8
S'0.0'
p9
sS'dim'
p10
I0
sS'end'
p11
S'1.0'
p12
sS'composition'
p13
(lp14
(lp15
S'37'
p16
aa(lp17
S'14'
p18
aasbag2
(g3
g4
Ntp19
Rp20
(dp21
S'start'
p22
S'0.0'
p23
sS'dim'
p24
I0
sS'end'
p25
S'2.0'
p26
sS'composition'
p27
(lp28
(lp29
S'8'
p30
aa(lp31
S'27'
p32
aasbag2
(g3
g4
Ntp33
Rp34
(dp35
S'start'
p36
S'0.0'
p37
sS'dim'
p38
I0
sS'end'
p39
S'3.0'
p40
sS'composition'
p41
(lp42
(lp43
S'23'
p44
aa(lp45
S'22'
p46
aasbag2
(g3
g4
Ntp47
Rp48
(dp49
S'start'
p50
S'0.0'
p51
sS'dim'
p52
I0
sS'end'
p53
S'4.0'
p54
sS'composition'
p55
(lp56
(lp57
S'20'
p58
aa(lp59
S'21'
p60
aasbag2
(g3
g4
Ntp61
Rp62
(dp63
S'start'
p64
S'0.0'
p65
sS'dim'
p66
I0
sS'end'
p67
S'5.0'
p68
sS'composition'
p69
(lp70
(lp71
S'8'
p72
aa(lp73
S'22'
p74
aasbag2
(g3
g4
Ntp75
Rp76
(dp77
S'start'
p78
S'0.0'
p79
sS'dim'
p80
I0
sS'end'
p81
S'6.0'
p82
sS'composition'
p83
(lp84
(lp85
S'23'
p86
aa(lp87
S'44'
p88
aasbag2
(g3
g4
Ntp89
Rp90
(dp91
S'start'
p92
S'0.0'
p93
sS'dim'
p94
I0
sS'end'
p95
S'7.0'
p96
sS'composition'
p97
(lp98
(lp99
S'43'
p100
aa(lp101
S'22'
p102
aasbag2
(g3
g4
Ntp103
Rp104
(dp105
S'start'
p106
S'0.0'
p107
sS'dim'
p108
I0
sS'end'
p109
S'8.0'
p110
sS'composition'
p111
(lp112
(lp113
S'36'
p114
aa(lp115
S'10'
p116
aasbag2
(g3
g4
Ntp117
Rp118
(dp119
S'start'
p120
S'0.0'
p121
sS'dim'
p122
I0
sS'end'
p123
S'10.0'
p124
sS'composition'
p125
(lp126
(lp127
S'12'
p128
aa(lp129
S'10'
p130
aasbag2
(g3
g4
Ntp131
Rp132
(dp133
S'start'
p134
S'0.0'
p135
sS'dim'
p136
I0
sS'end'
p137
S'11.0'
p138
sS'composition'
p139
(lp140
(lp141
S'10'
p142
aa(lp143
S'14'
p144
aasbag2
(g3
g4
Ntp145
Rp146
(dp147
S'start'
p148
S'0.0'
p149
sS'dim'
p150
I0
sS'end'
p151
S'12.0'
p152
sS'composition'
p153
(lp154
(lp155
S'8'
p156
aa(lp157
S'20'
p158
aasbag2
(g3
g4
Ntp159
Rp160
(dp161
S'start'
p162
S'0.0'
p163
sS'dim'
p164
I0
sS'end'
p165
S'13.0'
p166
sS'composition'
p167
(lp168
(lp169
S'8'
p170
aa(lp171
S'10'
p172
aasbag2
(g3
g4
Ntp173
Rp174
(dp175
S'start'
p176
S'0.0'
p177
sS'dim'
p178
I0
sS'end'
p179
S'16.0'
p180
sS'composition'
p181
(lp182
(lp183
S'15'
p184
aa(lp185
S'17'
p186
aasbag2
(g3
g4
Ntp187
Rp188
(dp189
S'start'
p190
S'0.0'
p191
sS'dim'
p192
I0
sS'end'
p193
S'20.0'
p194
sS'composition'
p195
(lp196
(lp197
S'13'
p198
aa(lp199
S'11'
p200
aasbag2
(g3
g4
Ntp201
Rp202
(dp203
S'start'
p204
S'0.0'
p205
sS'dim'
p206
I0
sS'end'
p207
S'21.0'
p208
sS'composition'
p209
(lp210
(lp211
S'33'
p212
aa(lp213
S'3'
p214
aasbag2
(g3
g4
Ntp215
Rp216
(dp217
S'start'
p218
S'0.0'
p219
sS'dim'
p220
I0
sS'end'
p221
S'22.0'
p222
sS'composition'
p223
(lp224
(lp225
S'29'
p226
aa(lp227
S'23'
p228
aasbag2
(g3
g4
Ntp229
Rp230
(dp231
S'start'
p232
S'0.0'
p233
sS'dim'
p234
I0
sS'end'
p235
S'25.0'
p236
sS'composition'
p237
(lp238
(lp239
S'16'
p240
aa(lp241
S'14'
p242
aasbag2
(g3
g4
Ntp243
Rp244
(dp245
S'start'
p246
S'0.0'
p247
sS'dim'
p248
I0
sS'end'
p249
S'26.0'
p250
sS'composition'
p251
(lp252
(lp253
S'45'
p254
aa(lp255
S'44'
p256
aasbag2
(g3
g4
Ntp257
Rp258
(dp259
S'start'
p260
S'0.0'
p261
sS'dim'
p262
I0
sS'end'
p263
S'27.0'
p264
sS'composition'
p265
(lp266
(lp267
S'42'
p268
aa(lp269
S'23'
p270
aasbag2
(g3
g4
Ntp271
Rp272
(dp273
S'start'
p274
S'0.0'
p275
sS'dim'
p276
I0
sS'end'
p277
S'28.0'
p278
sS'composition'
p279
(lp280
(lp281
S'8'
p282
aa(lp283
S'18'
p284
aasbag2
(g3
g4
Ntp285
Rp286
(dp287
S'start'
p288
S'0.0'
p289
sS'dim'
p290
I0
sS'end'
p291
S'29.0'
p292
sS'composition'
p293
(lp294
(lp295
S'25'
p296
aa(lp297
S'23'
p298
aasbag2
(g3
g4
Ntp299
Rp300
(dp301
S'start'
p302
S'0.0'
p303
sS'dim'
p304
I0
sS'end'
p305
S'31.0'
p306
sS'composition'
p307
(lp308
(lp309
S'8'
p310
aa(lp311
S'1'
p312
aasbag2
(g3
g4
Ntp313
Rp314
(dp315
S'start'
p316
S'0.0'
p317
sS'dim'
p318
I0
sS'end'
p319
S'32.0'
p320
sS'composition'
p321
(lp322
(lp323
S'30'
p324
aa(lp325
S'0'
p326
aasbag2
(g3
g4
Ntp327
Rp328
(dp329
S'start'
p330
S'0.0'
p331
sS'dim'
p332
I0
sS'end'
p333
S'33.0'
p334
sS'composition'
p335
(lp336
(lp337
S'8'
p338
aa(lp339
S'19'
p340
aasbag2
(g3
g4
Ntp341
Rp342
(dp343
S'start'
p344
S'0.0'
p345
sS'dim'
p346
I0
sS'end'
p347
S'34.0'
p348
sS'composition'
p349
(lp350
(lp351
S'40'
p352
aa(lp353
S'17'
p354
aasbag2
(g3
g4
Ntp355
Rp356
(dp357
S'start'
p358
S'0.0'
p359
sS'dim'
p360
I0
sS'end'
p361
S'35.0'
p362
sS'composition'
p363
(lp364
(lp365
S'31'
p366
aa(lp367
S'1'
p368
aasbag2
(g3
g4
Ntp369
Rp370
(dp371
S'start'
p372
S'0.0'
p373
sS'dim'
p374
I0
sS'end'
p375
S'36.0'
p376
sS'composition'
p377
(lp378
(lp379
S'8'
p380
aa(lp381
S'11'
p382
aasbag2
(g3
g4
Ntp383
Rp384
(dp385
S'start'
p386
S'0.0'
p387
sS'dim'
p388
I0
sS'end'
p389
S'41.0'
p390
sS'composition'
p391
(lp392
(lp393
S'3'
p394
aa(lp395
S'1'
p396
aasbag2
(g3
g4
Ntp397
Rp398
(dp399
S'start'
p400
S'0.0'
p401
sS'dim'
p402
I0
sS'end'
p403
S'42.0'
p404
sS'composition'
p405
(lp406
(lp407
S'23'
p408
aa(lp409
S'24'
p410
aasbag2
(g3
g4
Ntp411
Rp412
(dp413
S'start'
p414
S'0.0'
p415
sS'dim'
p416
I0
sS'end'
p417
S'45.0'
p418
sS'composition'
p419
(lp420
(lp421
S'14'
p422
aa(lp423
S'15'
p424
aasbag2
(g3
g4
Ntp425
Rp426
(dp427
S'start'
p428
S'0.0'
p429
sS'dim'
p430
I0
sS'end'
p431
S'47.0'
p432
sS'composition'
p433
(lp434
(lp435
S'4'
p436
aa(lp437
S'1'
p438
aasbag2
(g3
g4
Ntp439
Rp440
(dp441
S'start'
p442
S'0.0'
p443
sS'dim'
p444
I0
sS'end'
p445
S'54.0'
p446
sS'composition'
p447
(lp448
(lp449
S'4'
p450
aa(lp451
S'5'
p452
aasbag2
(g3
g4
Ntp453
Rp454
(dp455
S'start'
p456
S'0.0'
p457
sS'dim'
p458
I0
sS'end'
p459
S'55.0'
p460
sS'composition'
p461
(lp462
(lp463
S'30'
p464
aa(lp465
S'39'
p466
aasbag2
(g3
g4
Ntp467
Rp468
(dp469
S'start'
p470
S'0.0'
p471
sS'dim'
p472
I0
sS'end'
p473
S'56.0'
p474
sS'composition'
p475
(lp476
(lp477
S'34'
p478
aa(lp479
S'33'
p480
aasbag2
(g3
g4
Ntp481
Rp482
(dp483
S'start'
p484
S'0.0'
p485
sS'dim'
p486
I0
sS'end'
p487
S'61.0'
p488
sS'composition'
p489
(lp490
(lp491
S'7'
p492
aa(lp493
S'28'
p494
aasbag2
(g3
g4
Ntp495
Rp496
(dp497
S'start'
p498
S'0.0'
p499
sS'dim'
p500
I0
sS'end'
p501
S'74.0'
p502
sS'composition'
p503
(lp504
(lp505
S'2'
p506
aa(lp507
S'1'
p508
aasbag2
(g3
g4
Ntp509
Rp510
(dp511
S'start'
p512
S'0.0'
p513
sS'dim'
p514
I0
sS'end'
p515
S'103.0'
p516
sS'composition'
p517
(lp518
(lp519
S'1'
p520
aa(lp521
S'0'
p522
aasbag2
(g3
g4
Ntp523
Rp524
(dp525
S'start'
p526
S'0.0'
p527
sS'dim'
p528
I0
sS'end'
p529
S'113.0'
p530
sS'composition'
p531
(lp532
(lp533
S'32'
p534
aa(lp535
S'4'
p536
aasbag2
(g3
g4
Ntp537
Rp538
(dp539
S'start'
p540
S'0.0'
p541
sS'dim'
p542
I0
sS'end'
p543
S'114.0'
p544
sS'composition'
p545
(lp546
(lp547
S'7'
p548
aa(lp549
S'1'
p550
aasbag2
(g3
g4
Ntp551
Rp552
(dp553
S'start'
p554
S'0.0'
p555
sS'dim'
p556
I0
sS'end'
p557
S'120.0'
p558
sS'composition'
p559
(lp560
(lp561
S'8'
p562
aa(lp563
S'9'
p564
aasbag2
(g3
g4
Ntp565
Rp566
(dp567
S'start'
p568
S'0.0'
p569
sS'dim'
p570
I0
sS'end'
p571
S'129.0'
p572
sS'composition'
p573
(lp574
(lp575
S'26'
p576
aa(lp577
S'22'
p578
aasbag2
(g3
g4
Ntp579
Rp580
(dp581
S'start'
p582
S'0.0'
p583
sS'dim'
p584
I0
sS'end'
p585
S'166.0'
p586
sS'composition'
p587
(lp588
(lp589
S'38'
p590
aa(lp591
S'16'
p592
aasbag2
(g3
g4
Ntp593
Rp594
(dp595
S'start'
p596
S'0.0'
p597
sS'dim'
p598
I0
sS'end'
p599
S'182.0'
p600
sS'composition'
p601
(lp602
(lp603
S'6'
p604
aa(lp605
S'1'
p606
aasbag2
(g3
g4
Ntp607
Rp608
(dp609
S'start'
p610
S'0.0'
p611
sS'dim'
p612
I0
sS'end'
p613
S'245.0'
p614
sS'composition'
p615
(lp616
(lp617
S'41'
p618
aa(lp619
S'32'
p620
aasbag2
(g3
g4
Ntp621
Rp622
(dp623
S'start'
p624
S'0.0'
p625
sS'dim'
p626
I0
sS'end'
p627
S'787'
p628
sS'composition'
p629
(lp630
(lp631
S'0'
p632
aasbasI1
(lp633
g2
(g3
g4
Ntp634
Rp635
(dp636
S'start'
p637
S'53.0'
p638
sS'dim'
p639
I1
sS'end'
p640
S'60.0'
p641
sS'composition'
p642
(lp643
(lp644
S'25'
p645
aS'44'
p646
aa(lp647
S'20'
p648
aS'25'
p649
aa(lp650
S'8'
p651
aS'44'
p652
aa(lp653
S'8'
p654
aS'20'
p655
aasbag2
(g3
g4
Ntp656
Rp657
(dp658
S'start'
p659
S'65.0'
p660
sS'dim'
p661
I1
sS'end'
p662
S'80.0'
p663
sS'composition'
p664
(lp665
(lp666
S'1'
p667
aS'31'
p668
aa(lp669
S'18'
p670
aS'21'
p671
aa(lp672
S'3'
p673
aS'31'
p674
aa(lp675
S'8'
p676
aS'21'
p677
aa(lp678
S'3'
p679
aS'18'
p680
aa(lp681
S'1'
p682
aS'8'
p683
aasbag2
(g3
g4
Ntp684
Rp685
(dp686
S'start'
p687
S'44.0'
p688
sS'dim'
p689
I1
sS'end'
p690
S'85.0'
p691
sS'composition'
p692
(lp693
(lp694
S'8'
p695
aS'10'
p696
aa(lp697
S'27'
p698
aS'36'
p699
aa(lp700
S'10'
p701
aS'36'
p702
aa(lp703
S'8'
p704
aS'27'
p705
aasbag2
(g3
g4
Ntp706
Rp707
(dp708
S'start'
p709
S'82.0'
p710
sS'dim'
p711
I1
sS'end'
p712
S'100.0'
p713
sS'composition'
p714
(lp715
(lp716
S'8'
p717
aS'10'
p718
aa(lp719
S'10'
p720
aS'14'
p721
aa(lp722
S'14'
p723
aS'17'
p724
aa(lp725
S'8'
p726
aS'18'
p727
aa(lp728
S'17'
p729
aS'18'
p730
aasbag2
(g3
g4
Ntp731
Rp732
(dp733
S'start'
p734
S'94.0'
p735
sS'dim'
p736
I1
sS'end'
p737
S'106.0'
p738
sS'composition'
p739
(lp740
(lp741
S'14'
p742
aS'20'
p743
aa(lp744
S'20'
p745
aS'21'
p746
aa(lp747
S'15'
p748
aS'21'
p749
aa(lp750
S'14'
p751
aS'15'
p752
aasbag2
(g3
g4
Ntp753
Rp754
(dp755
S'start'
p756
S'59.0'
p757
sS'dim'
p758
I1
sS'end'
p759
S'107.0'
p760
sS'composition'
p761
(lp762
(lp763
S'8'
p764
aS'10'
p765
aa(lp766
S'10'
p767
aS'14'
p768
aa(lp769
S'17'
p770
aS'19'
p771
aa(lp772
S'19'
p773
aS'20'
p774
aa(lp775
S'14'
p776
aS'17'
p777
aa(lp778
S'8'
p779
aS'20'
p780
aasbag2
(g3
g4
Ntp781
Rp782
(dp783
S'start'
p784
S'91.0'
p785
sS'dim'
p786
I1
sS'end'
p787
S'111.0'
p788
sS'composition'
p789
(lp790
(lp791
S'2'
p792
aS'3'
p793
aa(lp794
S'3'
p795
aS'18'
p796
aa(lp797
S'2'
p798
aS'11'
p799
aa(lp800
S'11'
p801
aS'18'
p802
aasbag2
(g3
g4
Ntp803
Rp804
(dp805
S'start'
p806
S'118.0'
p807
sS'dim'
p808
I1
sS'end'
p809
S'123.0'
p810
sS'composition'
p811
(lp812
(lp813
S'8'
p814
aS'21'
p815
aa(lp816
S'8'
p817
aS'14'
p818
aa(lp819
S'16'
p820
aS'21'
p821
aa(lp822
S'14'
p823
aS'16'
p824
aasbag2
(g3
g4
Ntp825
Rp826
(dp827
S'start'
p828
S'98.0'
p829
sS'dim'
p830
I1
sS'end'
p831
S'128.0'
p832
sS'composition'
p833
(lp834
(lp835
S'17'
p836
aS'40'
p837
aa(lp838
S'29'
p839
aS'40'
p840
aa(lp841
S'18'
p842
aS'29'
p843
aa(lp844
S'17'
p845
aS'18'
p846
aasbag2
(g3
g4
Ntp847
Rp848
(dp849
S'start'
p850
S'75.0'
p851
sS'dim'
p852
I1
sS'end'
p853
S'162.0'
p854
sS'composition'
p855
(lp856
(lp857
S'11'
p858
aS'35'
p859
aa(lp860
S'3'
p861
aS'18'
p862
aa(lp863
S'4'
p864
aS'35'
p865
aa(lp866
S'3'
p867
aS'4'
p868
aa(lp869
S'11'
p870
aS'18'
p871
aasbag2
(g3
g4
Ntp872
Rp873
(dp874
S'start'
p875
S'153.0'
p876
sS'dim'
p877
I1
sS'end'
p878
S'163.0'
p879
sS'composition'
p880
(lp881
(lp882
S'18'
p883
aS'21'
p884
aa(lp885
S'8'
p886
aS'21'
p887
aa(lp888
S'8'
p889
aS'9'
p890
aa(lp891
S'13'
p892
aS'18'
p893
aa(lp894
S'9'
p895
aS'13'
p896
aasbag2
(g3
g4
Ntp897
Rp898
(dp899
S'start'
p900
S'121.0'
p901
sS'dim'
p902
I1
sS'end'
p903
S'176.0'
p904
sS'composition'
p905
(lp906
(lp907
S'14'
p908
aS'15'
p909
aa(lp910
S'10'
p911
aS'36'
p912
aa(lp913
S'10'
p914
aS'14'
p915
aa(lp916
S'15'
p917
aS'39'
p918
aa(lp919
S'36'
p920
aS'39'
p921
aasbag2
(g3
g4
Ntp922
Rp923
(dp924
S'start'
p925
S'188.0'
p926
sS'dim'
p927
I1
sS'end'
p928
S'196.0'
p929
sS'composition'
p930
(lp931
(lp932
S'11'
p933
aS'18'
p934
aa(lp935
S'0'
p936
aS'11'
p937
aa(lp938
S'17'
p939
aS'18'
p940
aa(lp941
S'0'
p942
aS'17'
p943
aasbag2
(g3
g4
Ntp944
Rp945
(dp946
S'start'
p947
S'156.0'
p948
sS'dim'
p949
I1
sS'end'
p950
S'196.0'
p951
sS'composition'
p952
(lp953
(lp954
S'11'
p955
aS'18'
p956
aa(lp957
S'0'
p958
aS'39'
p959
aa(lp960
S'39'
p961
aS'40'
p962
aa(lp963
S'18'
p964
aS'40'
p965
aa(lp966
S'0'
p967
aS'11'
p968
aasbag2
(g3
g4
Ntp969
Rp970
(dp971
S'start'
p972
S'146.0'
p973
sS'dim'
p974
I1
sS'end'
p975
S'203.0'
p976
sS'composition'
p977
(lp978
(lp979
S'8'
p980
aS'22'
p981
aa(lp982
S'9'
p983
aS'26'
p984
aa(lp985
S'8'
p986
aS'9'
p987
aa(lp988
S'22'
p989
aS'26'
p990
aasbag2
(g3
g4
Ntp991
Rp992
(dp993
S'start'
p994
S'108.0'
p995
sS'dim'
p996
I1
sS'end'
p997
S'205.0'
p998
sS'composition'
p999
(lp1000
(lp1001
S'17'
p1002
aS'40'
p1003
aa(lp1004
S'39'
p1005
aS'40'
p1006
aa(lp1007
S'15'
p1008
aS'39'
p1009
aa(lp1010
S'15'
p1011
aS'17'
p1012
aasbag2
(g3
g4
Ntp1013
Rp1014
(dp1015
S'start'
p1016
S'201.0'
p1017
sS'dim'
p1018
I1
sS'end'
p1019
S'218.0'
p1020
sS'composition'
p1021
(lp1022
(lp1023
S'3'
p1024
aS'8'
p1025
aa(lp1026
S'33'
p1027
aS'37'
p1028
aa(lp1029
S'3'
p1030
aS'33'
p1031
aa(lp1032
S'8'
p1033
aS'37'
p1034
aasbag2
(g3
g4
Ntp1035
Rp1036
(dp1037
S'start'
p1038
S'141.0'
p1039
sS'dim'
p1040
I1
sS'end'
p1041
S'323.0'
p1042
sS'composition'
p1043
(lp1044
(lp1045
S'18'
p1046
aS'29'
p1047
aa(lp1048
S'5'
p1049
aS'35'
p1050
aa(lp1051
S'18'
p1052
aS'35'
p1053
aa(lp1054
S'7'
p1055
aS'28'
p1056
aa(lp1057
S'28'
p1058
aS'29'
p1059
aa(lp1060
S'5'
p1061
aS'7'
p1062
aasbag2
(g3
g4
Ntp1063
Rp1064
(dp1065
S'start'
p1066
S'340.0'
p1067
sS'dim'
p1068
I1
sS'end'
p1069
S'351.0'
p1070
sS'composition'
p1071
(lp1072
(lp1073
S'7'
p1074
aS'35'
p1075
aa(lp1076
S'38'
p1077
aS'41'
p1078
aa(lp1079
S'7'
p1080
aS'38'
p1081
aa(lp1082
S'35'
p1083
aS'41'
p1084
aasbag2
(g3
g4
Ntp1085
Rp1086
(dp1087
S'start'
p1088
S'251.0'
p1089
sS'dim'
p1090
I1
sS'end'
p1091
S'369.0'
p1092
sS'composition'
p1093
(lp1094
(lp1095
S'7'
p1096
aS'18'
p1097
aa(lp1098
S'5'
p1099
aS'6'
p1100
aa(lp1101
S'6'
p1102
aS'8'
p1103
aa(lp1104
S'5'
p1105
aS'7'
p1106
aa(lp1107
S'18'
p1108
aS'27'
p1109
aa(lp1110
S'8'
p1111
aS'27'
p1112
aasbag2
(g3
g4
Ntp1113
Rp1114
(dp1115
S'start'
p1116
S'320.0'
p1117
sS'dim'
p1118
I1
sS'end'
p1119
S'383.0'
p1120
sS'composition'
p1121
(lp1122
(lp1123
S'40'
p1124
aS'41'
p1125
aa(lp1126
S'0'
p1127
aS'35'
p1128
aa(lp1129
S'0'
p1130
aS'40'
p1131
aa(lp1132
S'32'
p1133
aS'41'
p1134
aa(lp1135
S'32'
p1136
aS'35'
p1137
aasbag2
(g3
g4
Ntp1138
Rp1139
(dp1140
S'start'
p1141
S'344.0'
p1142
sS'dim'
p1143
I1
sS'end'
p1144
S'409.0'
p1145
sS'composition'
p1146
(lp1147
(lp1148
S'40'
p1149
aS'41'
p1150
aa(lp1151
S'8'
p1152
aS'24'
p1153
aa(lp1154
S'24'
p1155
aS'41'
p1156
aa(lp1157
S'13'
p1158
aS'40'
p1159
aa(lp1160
S'8'
p1161
aS'13'
p1162
aasbag2
(g3
g4
Ntp1163
Rp1164
(dp1165
S'start'
p1166
S'335.0'
p1167
sS'dim'
p1168
I1
sS'end'
p1169
S'463.0'
p1170
sS'composition'
p1171
(lp1172
(lp1173
S'40'
p1174
aS'41'
p1175
aa(lp1176
S'41'
p1177
aS'45'
p1178
aa(lp1179
S'8'
p1180
aS'45'
p1181
aa(lp1182
S'13'
p1183
aS'40'
p1184
aa(lp1185
S'8'
p1186
aS'13'
p1187
aasbas.